CCS PCH C Compiler, Version 5.104, 57077               04-3-26 14:23

               Filename:   build\son_tmp_main.lst

               ROM used:   16354 bytes (12%)
                           Largest free fragment is 65520
               RAM used:   360 (10%) at main() level
                           588 (16%) worst case
               Stack used: 7 locations (6 in main + 1 for interrupts)
               Stack size: 31

*
00000:  NOP   
00002:  GOTO   391E
*
00008:  MOVWF  04
0000A:  MOVFF  FD8,05
0000E:  MOVFF  FE0,06
00012:  MOVLB  0
00014:  MOVFF  FE9,0C
00018:  MOVFF  FEA,07
0001C:  MOVFF  FE1,08
00020:  MOVFF  FE2,09
00024:  MOVFF  FD9,0A
00028:  MOVFF  FDA,0B
0002C:  MOVFF  FF3,12
00030:  MOVFF  FF4,13
00034:  MOVFF  FFA,14
00038:  MOVFF  FF5,15
0003C:  MOVFF  FF6,16
00040:  MOVFF  FF7,17
00044:  MOVFF  FF8,18
00048:  MOVFF  FFB,19
0004C:  MOVFF  00,0E
00050:  MOVFF  01,0F
00054:  MOVFF  02,10
00058:  MOVFF  03,11
0005C:  BTFSS  F9D.0
0005E:  GOTO   0068
00062:  BTFSC  F9E.0
00064:  GOTO   00BE
00068:  MOVFF  0E,00
0006C:  MOVFF  0F,01
00070:  MOVFF  10,02
00074:  MOVFF  11,03
00078:  MOVFF  0C,FE9
0007C:  MOVFF  07,FEA
00080:  BSF    07.7
00082:  MOVFF  08,FE1
00086:  MOVFF  09,FE2
0008A:  MOVFF  0A,FD9
0008E:  MOVFF  0B,FDA
00092:  MOVFF  12,FF3
00096:  MOVFF  13,FF4
0009A:  MOVFF  14,FFA
0009E:  MOVFF  15,FF5
000A2:  MOVFF  16,FF6
000A6:  MOVFF  17,FF7
000AA:  MOVFF  18,FF8
000AE:  MOVFF  19,FFB
000B2:  MOVF   04,W
000B4:  MOVFF  06,FE0
000B8:  MOVFF  05,FD8
000BC:  RETFIE 0
.................... #include "cigs/system/son_tmp_main.h"
.................... #ifndef son_tmp_MAIN_H
.................... #define son_tmp_MAIN_H
.................... 
.................... #opt 0 // 0 = no optimization
.................... 
.................... //==============================================================================
.................... // CCS C 最適化構造: ヘッダー分散 + .cファイル統合
.................... //==============================================================================
.................... 
.................... // レベル1: システム設定
.................... #include "son_tmp_config.h"
.................... #ifndef son_tmp_CONFIG_H
.................... #define son_tmp_CONFIG_H
.................... 
.................... #define SELF_DEVICE_ID CIGS_PIC
.................... 
.................... #include <18F67J94.h>
.................... //////////// Standard Header file for the PIC18F67J94 device ////////////////
.................... ///////////////////////////////////////////////////////////////////////////
.................... ////        (C) Copyright 1996, 2020 Custom Computer Services          ////
.................... //// This source code may only be used by licensed users of the CCS C  ////
.................... //// compiler.  This source code may only be distributed to other      ////
.................... //// licensed users of the CCS C compiler.  No other use, reproduction ////
.................... //// or distribution is permitted without written permission.          ////
.................... //// Derivative programs created using this software in object code    ////
.................... //// form are not restricted in any way.                               ////
.................... ///////////////////////////////////////////////////////////////////////////
.................... #device PIC18F67J94
*
000F8:  DATA 54,69
000FA:  DATA 6D,65
000FC:  DATA 72,20
000FE:  DATA 49,6E
00100:  DATA 69,74
00102:  DATA 69,61
00104:  DATA 6C,69
00106:  DATA 7A,65
00108:  DATA 20,28
0010A:  DATA 31,36
0010C:  DATA 4D,48
0010E:  DATA 7A,20
00110:  DATA 4D,61
00112:  DATA 69,6E
00114:  DATA 20,43
00116:  DATA 6C,6F
00118:  DATA 63,6B
0011A:  DATA 20,42
0011C:  DATA 61,73
0011E:  DATA 65,29
00120:  DATA 0D,0A
00122:  DATA 00,00
00124:  DATA 09,43
00126:  DATA 6F,6D
00128:  DATA 70,6C
0012A:  DATA 65,74
0012C:  DATA 65,0D
0012E:  DATA 0A,00
00130:  DATA 55,41
00132:  DATA 52,54
00134:  DATA 20,49
00136:  DATA 6E,69
00138:  DATA 74,69
0013A:  DATA 61,6C
0013C:  DATA 69,7A
0013E:  DATA 65,0D
00140:  DATA 0A,00
00142:  DATA 09,43
00144:  DATA 6F,6D
00146:  DATA 70,6C
00148:  DATA 65,74
0014A:  DATA 65,0D
0014C:  DATA 0A,00
0014E:  DATA 45,6E
00150:  DATA 71,75
00152:  DATA 65,75
00154:  DATA 65,20
00156:  DATA 46,6C
00158:  DATA 61,73
0015A:  DATA 68,20
0015C:  DATA 4F,70
0015E:  DATA 65,72
00160:  DATA 61,74
00162:  DATA 69,6F
00164:  DATA 6E,0D
00166:  DATA 0A,00
00168:  DATA 46,6C
0016A:  DATA 61,73
0016C:  DATA 68,20
0016E:  DATA 71,75
00170:  DATA 65,75
00172:  DATA 65,20
00174:  DATA 69,73
00176:  DATA 20,66
00178:  DATA 75,6C
0017A:  DATA 6C,21
0017C:  DATA 21,21
0017E:  DATA 0D,0A
00180:  DATA 00,00
00182:  DATA 46,6C
00184:  DATA 61,73
00186:  DATA 68,20
00188:  DATA 71,75
0018A:  DATA 65,75
0018C:  DATA 65,20
0018E:  DATA 69,73
00190:  DATA 20,65
00192:  DATA 6D,70
00194:  DATA 74,79
00196:  DATA 0D,0A
00198:  DATA 00,00
0019A:  DATA 0D,0A
0019C:  DATA 53,74
0019E:  DATA 61,72
001A0:  DATA 74,20
001A2:  DATA 6D,61
001A4:  DATA 6B,65
001A6:  DATA 5F,72
001A8:  DATA 65,63
001AA:  DATA 65,69
001AC:  DATA 76,65
001AE:  DATA 5F,63
001B0:  DATA 6F,6D
001B2:  DATA 6D,61
001B4:  DATA 6E,64
001B6:  DATA 0D,0A
001B8:  DATA 00,00
001BA:  DATA 09,5B
001BC:  DATA 42,4F
001BE:  DATA 53,53
001C0:  DATA 5D,20
001C2:  DATA 3E,3E
001C4:  DATA 3E,20
001C6:  DATA 00,00
001C8:  DATA 45,6E
001CA:  DATA 64,20
001CC:  DATA 6D,61
001CE:  DATA 6B,65
001D0:  DATA 5F,72
001D2:  DATA 65,63
001D4:  DATA 69,76
001D6:  DATA 65,5F
001D8:  DATA 63,6F
001DA:  DATA 6D,6D
001DC:  DATA 61,6E
001DE:  DATA 64,0D
001E0:  DATA 0A,0D
001E2:  DATA 0A,00
001E4:  DATA 73,69
001E6:  DATA 67,6E
001E8:  DATA 61,6C
001EA:  DATA 20,65
001EC:  DATA 6E,64
001EE:  DATA 20,77
001F0:  DATA 69,74
001F2:  DATA 68,20
001F4:  DATA 53,46
001F6:  DATA 44,0D
001F8:  DATA 0A,00
001FA:  DATA 64,6F
001FC:  DATA 6E,27
001FE:  DATA 74,20
00200:  DATA 66,69
00202:  DATA 6E,64
00204:  DATA 20,53
00206:  DATA 46,44
00208:  DATA 0D,0A
0020A:  DATA 00,00
0020C:  DATA 09,2D
0020E:  DATA 3E,20
00210:  DATA 49,6E
00212:  DATA 76,61
00214:  DATA 6C,69
00216:  DATA 64,20
00218:  DATA 46,72
0021A:  DATA 61,6D
0021C:  DATA 65,20
0021E:  DATA 49,44
00220:  DATA 20,72
00222:  DATA 65,63
00224:  DATA 65,69
00226:  DATA 76,65
00228:  DATA 64,3A
0022A:  DATA 20,25
0022C:  DATA 58,0D
0022E:  DATA 0A,00
00230:  DATA 09,2D
00232:  DATA 3E,20
00234:  DATA 43,52
00236:  DATA 43,20
00238:  DATA 65,72
0023A:  DATA 72,6F
0023C:  DATA 72,21
0023E:  DATA 0D,0A
00240:  DATA 00,00
00242:  DATA 09,09
00244:  DATA 2D,3E
00246:  DATA 20,72
00248:  DATA 65,63
0024A:  DATA 65,69
0024C:  DATA 76,65
0024E:  DATA 64,20
00250:  DATA 43,52
00252:  DATA 43,3A
00254:  DATA 20,25
00256:  DATA 58,0D
00258:  DATA 0A,00
0025A:  DATA 09,09
0025C:  DATA 20,20
0025E:  DATA 20,63
00260:  DATA 6F,6C
00262:  DATA 6C,65
00264:  DATA 63,74
00266:  DATA 20,43
00268:  DATA 52,43
0026A:  DATA 20,3A
0026C:  DATA 20,25
0026E:  DATA 58,0D
00270:  DATA 0A,00
00272:  DATA 09,2D
00274:  DATA 3E,20
00276:  DATA 49,6E
00278:  DATA 76,61
0027A:  DATA 6C,69
0027C:  DATA 64,20
0027E:  DATA 64,65
00280:  DATA 76,69
00282:  DATA 63,65
00284:  DATA 20,49
00286:  DATA 44,20
00288:  DATA 72,65
0028A:  DATA 63,65
0028C:  DATA 69,76
0028E:  DATA 65,64
00290:  DATA 0D,0A
00292:  DATA 00,00
00294:  DATA 09,09
00296:  DATA 2D,3E
00298:  DATA 20,72
0029A:  DATA 65,63
0029C:  DATA 65,69
0029E:  DATA 76,65
002A0:  DATA 64,3A
002A2:  DATA 20,20
002A4:  DATA 20,20
002A6:  DATA 20,25
002A8:  DATA 58,0D
002AA:  DATA 0A,00
002AC:  DATA 09,09
002AE:  DATA 20,20
002B0:  DATA 20,4D
002B2:  DATA 79,20
002B4:  DATA 64,65
002B6:  DATA 76,69
002B8:  DATA 63,65
002BA:  DATA 20,49
002BC:  DATA 44,3A
002BE:  DATA 20,25
002C0:  DATA 58,0D
002C2:  DATA 0A,00
002C4:  DATA 09,5B
002C6:  DATA 42,4F
002C8:  DATA 53,53
002CA:  DATA 5D,20
002CC:  DATA 3C,3C
002CE:  DATA 3C,20
002D0:  DATA 00,00
002D2:  DATA 53,74
002D4:  DATA 61,72
002D6:  DATA 74,20
002D8:  DATA 53,4D
002DA:  DATA 46,20
002DC:  DATA 75,73
002DE:  DATA 69,6E
002E0:  DATA 67,20
002E2:  DATA 72,65
002E4:  DATA 71,65
002E6:  DATA 73,74
002E8:  DATA 20,73
002EA:  DATA 65,61
002EC:  DATA 71,75
002EE:  DATA 65,6E
002F0:  DATA 63,65
002F2:  DATA 0D,0A
002F4:  DATA 00,00
002F6:  DATA 45,72
002F8:  DATA 72,6F
002FA:  DATA 72,21
002FC:  DATA 20,52
002FE:  DATA 65,63
00300:  DATA 65,69
00302:  DATA 76,69
00304:  DATA 6E,67
00306:  DATA 20,63
00308:  DATA 6F,6D
0030A:  DATA 6D,61
0030C:  DATA 6E,64
0030E:  DATA 20,69
00310:  DATA 6E,63
00312:  DATA 6F,6E
00314:  DATA 73,69
00316:  DATA 73,74
00318:  DATA 65,6E
0031A:  DATA 74,20
0031C:  DATA 77,69
0031E:  DATA 74,68
00320:  DATA 20,74
00322:  DATA 68,65
00324:  DATA 20,64
00326:  DATA 65,73
00328:  DATA 69,67
0032A:  DATA 6E,0D
0032C:  DATA 0A,00
0032E:  DATA 53,4D
00330:  DATA 46,20
00332:  DATA 75,73
00334:  DATA 65,20
00336:  DATA 72,65
00338:  DATA 71,75
0033A:  DATA 65,73
0033C:  DATA 74,20
0033E:  DATA 61,6C
00340:  DATA 6C,6F
00342:  DATA 77,65
00344:  DATA 64,0D
00346:  DATA 0A,00
00348:  DATA 53,4D
0034A:  DATA 46,20
0034C:  DATA 75,73
0034E:  DATA 65,20
00350:  DATA 72,65
00352:  DATA 71,75
00354:  DATA 65,73
00356:  DATA 74,20
00358:  DATA 64,65
0035A:  DATA 6E,79
0035C:  DATA 65,64
0035E:  DATA 0D,0A
00360:  DATA 00,00
00362:  DATA 52,65
00364:  DATA 74,72
00366:  DATA 79,20
00368:  DATA 72,65
0036A:  DATA 71,75
0036C:  DATA 65,73
0036E:  DATA 74,20
00370:  DATA 74,6F
00372:  DATA 20,42
00374:  DATA 4F,53
00376:  DATA 53,20
00378:  DATA 50,49
0037A:  DATA 43,0D
0037C:  DATA 0A,00
0037E:  DATA 45,72
00380:  DATA 72,6F
00382:  DATA 72,21
00384:  DATA 20,52
00386:  DATA 65,63
00388:  DATA 65,69
0038A:  DATA 76,69
0038C:  DATA 6E,67
0038E:  DATA 20,63
00390:  DATA 6F,6D
00392:  DATA 6D,61
00394:  DATA 6E,64
00396:  DATA 20,69
00398:  DATA 6E,63
0039A:  DATA 6F,6E
0039C:  DATA 73,69
0039E:  DATA 73,74
003A0:  DATA 65,6E
003A2:  DATA 74,20
003A4:  DATA 77,69
003A6:  DATA 74,68
003A8:  DATA 20,74
003AA:  DATA 68,65
003AC:  DATA 20,64
003AE:  DATA 65,73
003B0:  DATA 69,67
003B2:  DATA 6E,0D
003B4:  DATA 0A,00
003B6:  DATA 45,6E
003B8:  DATA 64,20
003BA:  DATA 53,4D
003BC:  DATA 46,20
003BE:  DATA 75,73
003C0:  DATA 69,6E
003C2:  DATA 67,20
003C4:  DATA 72,65
003C6:  DATA 71,65
003C8:  DATA 73,74
003CA:  DATA 20,73
003CC:  DATA 65,61
003CE:  DATA 71,75
003D0:  DATA 65,6E
003D2:  DATA 63,65
003D4:  DATA 0D,0A
003D6:  DATA 00,00
003D8:  DATA 49,4F
003DA:  DATA 20,49
003DC:  DATA 6E,69
003DE:  DATA 74,69
003E0:  DATA 61,6C
003E2:  DATA 69,7A
003E4:  DATA 65,0D
003E6:  DATA 0A,00
003E8:  DATA 09,43
003EA:  DATA 6F,6D
003EC:  DATA 70,6C
003EE:  DATA 65,74
003F0:  DATA 65,0D
003F2:  DATA 0A,00
003F4:  DATA 53,74
003F6:  DATA 61,72
003F8:  DATA 74,20
003FA:  DATA 4D,65
003FC:  DATA 61,73
003FE:  DATA 75,72
00400:  DATA 65,6D
00402:  DATA 65,6E
00404:  DATA 74,20
00406:  DATA 28,4D
00408:  DATA 6F,64
0040A:  DATA 65,3A
0040C:  DATA 25,75
0040E:  DATA 2C,20
00410:  DATA 43,68
00412:  DATA 3A,25
00414:  DATA 75,29
00416:  DATA 0D,0A
00418:  DATA 00,00
0041A:  DATA 45,6E
0041C:  DATA 64,20
0041E:  DATA 43,49
00420:  DATA 47,53
00422:  DATA 20,4D
00424:  DATA 65,61
00426:  DATA 73,75
00428:  DATA 72,65
0042A:  DATA 6D,65
0042C:  DATA 6E,74
0042E:  DATA 20,53
00430:  DATA 65,71
00432:  DATA 75,65
00434:  DATA 6E,63
00436:  DATA 65,0D
00438:  DATA 0A,00
0043A:  DATA 54,65
0043C:  DATA 6D,70
0043E:  DATA 20,49
00440:  DATA 4F,20
00442:  DATA 49,6E
00444:  DATA 69,74
00446:  DATA 69,61
00448:  DATA 6C,69
0044A:  DATA 7A,65
0044C:  DATA 0D,0A
0044E:  DATA 00,00
00450:  DATA 09,43
00452:  DATA 6F,6D
00454:  DATA 70,6C
00456:  DATA 65,74
00458:  DATA 65,0D
0045A:  DATA 0A,00
0045C:  DATA 53,74
0045E:  DATA 61,72
00460:  DATA 74,20
00462:  DATA 54,65
00464:  DATA 6D,70
00466:  DATA 20,4D
00468:  DATA 65,61
0046A:  DATA 73,75
0046C:  DATA 72,65
0046E:  DATA 6D,65
00470:  DATA 6E,74
00472:  DATA 20,28
00474:  DATA 50,61
00476:  DATA 63,6B
00478:  DATA 65,74
0047A:  DATA 73,20
0047C:  DATA 25,75
0047E:  DATA 20,74
00480:  DATA 6F,20
00482:  DATA 25,75
00484:  DATA 29,0D
00486:  DATA 0A,00
00488:  DATA 45,6E
0048A:  DATA 64,20
0048C:  DATA 54,65
0048E:  DATA 6D,70
00490:  DATA 20,4D
00492:  DATA 65,61
00494:  DATA 73,75
00496:  DATA 72,65
00498:  DATA 6D,65
0049A:  DATA 6E,74
0049C:  DATA 0D,0A
0049E:  DATA 00,00
004A0:  DATA 09,5B
004A2:  DATA 50,49
004A4:  DATA 43,4C
004A6:  DATA 4F,47
004A8:  DATA 5D,20
004AA:  DATA 3A,20
004AC:  DATA 00,00
004AE:  DATA 09,5B
004B0:  DATA 53,4D
004B2:  DATA 46,5D
004B4:  DATA 20,50
004B6:  DATA 72,65
004B8:  DATA 70,61
004BA:  DATA 72,65
004BC:  DATA 3A,20
004BE:  DATA 41,64
004C0:  DATA 64,72
004C2:  DATA 3D,30
004C4:  DATA 78,25
004C6:  DATA 30,38
004C8:  DATA 6C,58
004CA:  DATA 2C,20
004CC:  DATA 53,69
004CE:  DATA 7A,65
004D0:  DATA 3D,25
004D2:  DATA 6C,75
004D4:  DATA 20,62
004D6:  DATA 79,74
004D8:  DATA 65,73
004DA:  DATA 0D,0A
004DC:  DATA 00,00
004DE:  DATA 09,5B
004E0:  DATA 53,4D
004E2:  DATA 46,5D
004E4:  DATA 20,50
004E6:  DATA 72,65
004E8:  DATA 70,61
004EA:  DATA 72,65
004EC:  DATA 3A,20
004EE:  DATA 4E,6F
004F0:  DATA 20,64
004F2:  DATA 61,74
004F4:  DATA 61,20
004F6:  DATA 74,6F
004F8:  DATA 20,63
004FA:  DATA 6F,70
004FC:  DATA 79,2E
004FE:  DATA 0D,0A
00500:  DATA 00,00
00502:  DATA 09,5B
00504:  DATA 53,4D
00506:  DATA 46,5D
00508:  DATA 20,43
0050A:  DATA 6F,70
0050C:  DATA 79,69
0050E:  DATA 6E,67
00510:  DATA 20,64
00512:  DATA 61,74
00514:  DATA 61,20
00516:  DATA 74,6F
00518:  DATA 20,43
0051A:  DATA 50,4C
0051C:  DATA 44,2E
0051E:  DATA 2E,2E
00520:  DATA 0D,0A
00522:  DATA 00,00
00524:  DATA 09,5B
00526:  DATA 53,4D
00528:  DATA 46,5D
0052A:  DATA 20,43
0052C:  DATA 6F,70
0052E:  DATA 79,20
00530:  DATA 43,6F
00532:  DATA 6D,70
00534:  DATA 6C,65
00536:  DATA 74,65
00538:  DATA 2E,0D
0053A:  DATA 0A,00
0053C:  DATA 09,5B
0053E:  DATA 53,4D
00540:  DATA 46,5D
00542:  DATA 20,50
00544:  DATA 65,72
00546:  DATA 6D,69
00548:  DATA 74,3A
0054A:  DATA 20,43
0054C:  DATA 6F,75
0054E:  DATA 6E,74
00550:  DATA 65,72
00552:  DATA 73,20
00554:  DATA 75,70
00556:  DATA 64,61
00558:  DATA 74,65
0055A:  DATA 64,20
0055C:  DATA 61,6E
0055E:  DATA 64,20
00560:  DATA 73,61
00562:  DATA 76,65
00564:  DATA 64,2E
00566:  DATA 0D,0A
00568:  DATA 00,00
0056A:  DATA 4D,49
0056C:  DATA 53,53
0056E:  DATA 49,4F
00570:  DATA 4E,20
00572:  DATA 46,4C
00574:  DATA 41,53
00576:  DATA 48,20
00578:  DATA 49,6E
0057A:  DATA 69,74
0057C:  DATA 69,61
0057E:  DATA 6C,69
00580:  DATA 7A,65
00582:  DATA 0D,0A
00584:  DATA 00,00
00586:  DATA 09,5B
00588:  DATA 4D,49
0058A:  DATA 53,20
0058C:  DATA 46,4D
0058E:  DATA 5D,20
00590:  DATA 43,6F
00592:  DATA 6E,6E
00594:  DATA 65,63
00596:  DATA 74,65
00598:  DATA 64,0D
0059A:  DATA 0A,00
0059C:  DATA 09,5B
0059E:  DATA 4D,49
005A0:  DATA 53,20
005A2:  DATA 46,4D
005A4:  DATA 5D,20
005A6:  DATA 4E,6F
005A8:  DATA 74,20
005AA:  DATA 43,6F
005AC:  DATA 6E,6E
005AE:  DATA 65,63
005B0:  DATA 74,65
005B2:  DATA 64,0D
005B4:  DATA 0A,00
005B6:  DATA 09,5B
005B8:  DATA 53,4D
005BA:  DATA 46,5D
005BC:  DATA 20,43
005BE:  DATA 6F,6E
005C0:  DATA 6E,65
005C2:  DATA 63,74
005C4:  DATA 65,64
005C6:  DATA 0D,0A
005C8:  DATA 00,00
005CA:  DATA 09,5B
005CC:  DATA 53,4D
005CE:  DATA 46,5D
005D0:  DATA 20,4E
005D2:  DATA 6F,74
005D4:  DATA 20,43
005D6:  DATA 6F,6E
005D8:  DATA 6E,65
005DA:  DATA 63,74
005DC:  DATA 65,64
005DE:  DATA 0D,0A
005E0:  DATA 00,00
005E2:  DATA 09,44
005E4:  DATA 61,74
005E6:  DATA 61,20
005E8:  DATA 74,61
005EA:  DATA 62,6C
005EC:  DATA 65,20
005EE:  DATA 6C,6F
005F0:  DATA 61,64
005F2:  DATA 65,64
005F4:  DATA 20,66
005F6:  DATA 72,6F
005F8:  DATA 6D,20
005FA:  DATA 46,6C
005FC:  DATA 61,73
005FE:  DATA 68,2E
00600:  DATA 0D,0A
00602:  DATA 00,00
00604:  DATA 09,44
00606:  DATA 61,74
00608:  DATA 61,20
0060A:  DATA 74,61
0060C:  DATA 62,6C
0060E:  DATA 65,20
00610:  DATA 69,73
00612:  DATA 20,65
00614:  DATA 6D,70
00616:  DATA 74,79
00618:  DATA 2E,20
0061A:  DATA 49,6E
0061C:  DATA 69,74
0061E:  DATA 69,61
00620:  DATA 6C,69
00622:  DATA 7A,65
00624:  DATA 64,20
00626:  DATA 74,6F
00628:  DATA 20,7A
0062A:  DATA 65,72
0062C:  DATA 6F,2E
0062E:  DATA 0D,0A
00630:  DATA 00,00
00632:  DATA 09,43
00634:  DATA 6F,6D
00636:  DATA 70,6C
00638:  DATA 65,74
0063A:  DATA 65,0D
0063C:  DATA 0A,00
0063E:  DATA 2D,2D
00640:  DATA 2D,20
00642:  DATA 46,6C
00644:  DATA 61,73
00646:  DATA 68,20
00648:  DATA 53,74
0064A:  DATA 61,74
0064C:  DATA 75,73
0064E:  DATA 20,2D
00650:  DATA 2D,2D
00652:  DATA 0D,0A
00654:  DATA 00,00
00656:  DATA 50,49
00658:  DATA 43,4C
0065A:  DATA 4F,47
0065C:  DATA 20,20
0065E:  DATA 55,73
00660:  DATA 65,64
00662:  DATA 3A,20
00664:  DATA 25,6C
00666:  DATA 75,2C
00668:  DATA 20,55
0066A:  DATA 6E,63
0066C:  DATA 6F,70
0066E:  DATA 69,65
00670:  DATA 64,3A
00672:  DATA 20,25
00674:  DATA 6C,75
00676:  DATA 0D,0A
00678:  DATA 00,00
0067A:  DATA 45,4E
0067C:  DATA 56,49
0067E:  DATA 52,4F
00680:  DATA 20,20
00682:  DATA 55,73
00684:  DATA 65,64
00686:  DATA 3A,20
00688:  DATA 25,6C
0068A:  DATA 75,2C
0068C:  DATA 20,55
0068E:  DATA 6E,63
00690:  DATA 6F,70
00692:  DATA 69,65
00694:  DATA 64,3A
00696:  DATA 20,25
00698:  DATA 6C,75
0069A:  DATA 0D,0A
0069C:  DATA 00,00
0069E:  DATA 49,56
006A0:  DATA 20,44
006A2:  DATA 41,54
006A4:  DATA 41,20
006A6:  DATA 55,73
006A8:  DATA 65,64
006AA:  DATA 3A,20
006AC:  DATA 25,6C
006AE:  DATA 75,2C
006B0:  DATA 20,55
006B2:  DATA 6E,63
006B4:  DATA 6F,70
006B6:  DATA 69,65
006B8:  DATA 64,3A
006BA:  DATA 20,25
006BC:  DATA 6C,75
006BE:  DATA 0D,0A
006C0:  DATA 00,00
006C2:  DATA 2D,2D
006C4:  DATA 2D,2D
006C6:  DATA 2D,2D
006C8:  DATA 2D,2D
006CA:  DATA 2D,2D
006CC:  DATA 2D,2D
006CE:  DATA 2D,2D
006D0:  DATA 2D,2D
006D2:  DATA 2D,2D
006D4:  DATA 2D,2D
006D6:  DATA 0D,0A
006D8:  DATA 00,00
006DA:  DATA 54,4D
006DC:  DATA 50,20
006DE:  DATA 53,79
006E0:  DATA 73,74
006E2:  DATA 65,6D
006E4:  DATA 20,49
006E6:  DATA 6E,69
006E8:  DATA 74,69
006EA:  DATA 61,6C
006EC:  DATA 69,7A
006EE:  DATA 65,20
006F0:  DATA 53,74
006F2:  DATA 61,72
006F4:  DATA 74,0D
006F6:  DATA 0A,00
006F8:  DATA 54,4D
006FA:  DATA 50,20
006FC:  DATA 53,79
006FE:  DATA 73,74
00700:  DATA 65,6D
00702:  DATA 20,49
00704:  DATA 6E,69
00706:  DATA 74,69
00708:  DATA 61,6C
0070A:  DATA 69,7A
0070C:  DATA 65,20
0070E:  DATA 43,6F
00710:  DATA 6D,70
00712:  DATA 6C,65
00714:  DATA 74,65
00716:  DATA 0D,0A
00718:  DATA 00,00
0071A:  DATA 52,65
0071C:  DATA 63,65
0071E:  DATA 69,76
00720:  DATA 65,64
00722:  DATA 20,43
00724:  DATA 6F,6D
00726:  DATA 6D,61
00728:  DATA 6E,64
0072A:  DATA 3A,20
0072C:  DATA 30,78
0072E:  DATA 25,30
00730:  DATA 32,58
00732:  DATA 0D,0A
00734:  DATA 00,00
00736:  DATA 55,6E
00738:  DATA 6B,6E
0073A:  DATA 6F,77
0073C:  DATA 6E,20
0073E:  DATA 43,6F
00740:  DATA 6D,6D
00742:  DATA 61,6E
00744:  DATA 64,3A
00746:  DATA 20,30
00748:  DATA 78,25
0074A:  DATA 30,32
0074C:  DATA 58,0D
0074E:  DATA 0A,00
00750:  DATA 2D,2D
00752:  DATA 2D,20
00754:  DATA 4D,69
00756:  DATA 73,73
00758:  DATA 69,6F
0075A:  DATA 6E,20
0075C:  DATA 53,65
0075E:  DATA 71,75
00760:  DATA 65,6E
00762:  DATA 63,65
00764:  DATA 20,53
00766:  DATA 74,61
00768:  DATA 72,74
0076A:  DATA 20,2D
0076C:  DATA 2D,2D
0076E:  DATA 0D,0A
00770:  DATA 00,00
00772:  DATA 45,78
00774:  DATA 65,63
00776:  DATA 75,74
00778:  DATA 69,6E
0077A:  DATA 67,20
0077C:  DATA 43,68
0077E:  DATA 61,6E
00780:  DATA 6E,65
00782:  DATA 6C,3A
00784:  DATA 20,25
00786:  DATA 75,0D
00788:  DATA 0A,00
0078A:  DATA 2D,2D
0078C:  DATA 2D,20
0078E:  DATA 4D,69
00790:  DATA 73,73
00792:  DATA 69,6F
00794:  DATA 6E,20
00796:  DATA 53,65
00798:  DATA 71,75
0079A:  DATA 65,6E
0079C:  DATA 63,65
0079E:  DATA 20,43
007A0:  DATA 6F,6D
007A2:  DATA 70,6C
007A4:  DATA 65,74
007A6:  DATA 65,20
007A8:  DATA 2D,2D
007AA:  DATA 2D,0D
007AC:  DATA 0A,00
007AE:  DATA 2D,2D
007B0:  DATA 2D,20
007B2:  DATA 53,4D
007B4:  DATA 46,20
007B6:  DATA 54,72
007B8:  DATA 61,6E
007BA:  DATA 73,66
007BC:  DATA 65,72
007BE:  DATA 20,50
007C0:  DATA 72,65
007C2:  DATA 70,61
007C4:  DATA 72,65
007C6:  DATA 20,2D
007C8:  DATA 2D,2D
007CA:  DATA 0D,0A
007CC:  DATA 00,00
007CE:  DATA 2D,2D
007D0:  DATA 2D,20
007D2:  DATA 53,4D
007D4:  DATA 46,20
007D6:  DATA 54,72
007D8:  DATA 61,6E
007DA:  DATA 73,66
007DC:  DATA 65,72
007DE:  DATA 20,45
007E0:  DATA 78,65
007E2:  DATA 63,75
007E4:  DATA 74,65
007E6:  DATA 20,2D
007E8:  DATA 2D,2D
007EA:  DATA 0D,0A
007EC:  DATA 00,00
007EE:  DATA 2D,2D
007F0:  DATA 2D,20
007F2:  DATA 53,4D
007F4:  DATA 46,20
007F6:  DATA 54,72
007F8:  DATA 61,6E
007FA:  DATA 73,66
007FC:  DATA 65,72
007FE:  DATA 20,50
00800:  DATA 65,72
00802:  DATA 6D,69
00804:  DATA 74,20
00806:  DATA 2D,2D
00808:  DATA 2D,0D
0080A:  DATA 0A,00
0080C:  DATA 2D,2D
0080E:  DATA 2D,20
00810:  DATA 53,4D
00812:  DATA 46,20
00814:  DATA 54,72
00816:  DATA 61,6E
00818:  DATA 73,66
0081A:  DATA 65,72
0081C:  DATA 20,53
0081E:  DATA 65,71
00820:  DATA 75,65
00822:  DATA 6E,63
00824:  DATA 65,20
00826:  DATA 43,6F
00828:  DATA 6D,70
0082A:  DATA 6C,65
0082C:  DATA 74,65
0082E:  DATA 20,2D
00830:  DATA 2D,2D
00832:  DATA 0D,0A
00834:  DATA 00,00
00836:  DATA 0D,0A
00838:  DATA 0D,0A
0083A:  DATA 0D,0A
0083C:  DATA 3D,3D
0083E:  DATA 3D,3D
00840:  DATA 3D,3D
00842:  DATA 3D,3D
00844:  DATA 3D,3D
00846:  DATA 3D,3D
00848:  DATA 3D,3D
0084A:  DATA 3D,3D
0084C:  DATA 3D,3D
0084E:  DATA 3D,3D
00850:  DATA 3D,3D
00852:  DATA 3D,3D
00854:  DATA 3D,3D
00856:  DATA 3D,3D
00858:  DATA 3D,3D
0085A:  DATA 3D,3D
0085C:  DATA 3D,3D
0085E:  DATA 3D,3D
00860:  DATA 3D,3D
00862:  DATA 3D,3D
00864:  DATA 3D,3D
00866:  DATA 3D,3D
00868:  DATA 3D,3D
0086A:  DATA 3D,3D
0086C:  DATA 3D,3D
0086E:  DATA 3D,3D
00870:  DATA 3D,3D
00872:  DATA 3D,3D
00874:  DATA 3D,3D
00876:  DATA 3D,3D
00878:  DATA 0D,0A
0087A:  DATA 00,00
0087C:  DATA 54,68
0087E:  DATA 69,73
00880:  DATA 20,69
00882:  DATA 73,20
00884:  DATA 53,48
00886:  DATA 49,4F
00888:  DATA 4E,20
0088A:  DATA 54,4D
0088C:  DATA 50,20
0088E:  DATA 50,49
00890:  DATA 43,2E
00892:  DATA 0D,0A
00894:  DATA 00,00
00896:  DATA 4C,61
00898:  DATA 73,74
0089A:  DATA 20,75
0089C:  DATA 70,64
0089E:  DATA 61,74
008A0:  DATA 65,64
008A2:  DATA 20,6F
008A4:  DATA 6E,20
008A6:  DATA 25,73
008A8:  DATA 20,25
008AA:  DATA 73,2E
008AC:  DATA 0D,0A
008AE:  DATA 0D,0A
008B0:  DATA 00,00
008B2:  DATA 34,2D
008B4:  DATA 4D,61
008B6:  DATA 72,2D
008B8:  DATA 32,36
008BA:  DATA 00,00
008BC:  DATA 31,34
008BE:  DATA 3A,32
008C0:  DATA 33,3A
008C2:  DATA 30,30
008C4:  DATA 00,00
008C6:  DATA 5F,5F
008C8:  DATA 5F,5F
008CA:  DATA 54,4D
008CC:  DATA 50,20
008CE:  DATA 50,49
008D0:  DATA 43,20
008D2:  DATA 53,74
008D4:  DATA 61,72
008D6:  DATA 74,20
008D8:  DATA 4F,70
008DA:  DATA 65,72
008DC:  DATA 61,74
008DE:  DATA 69,6F
008E0:  DATA 6E,5F
008E2:  DATA 5F,5F
008E4:  DATA 5F,5F
008E6:  DATA 0D,0A
008E8:  DATA 0D,0A
008EA:  DATA 00,00
008EC:  DATA 77,61
008EE:  DATA 69,74
008F0:  DATA 69,6E
008F2:  DATA 67,20
008F4:  DATA 66,6F
008F6:  DATA 72,20
008F8:  DATA 42,4F
008FA:  DATA 53,53
008FC:  DATA 20,50
008FE:  DATA 49,43
00900:  DATA 20,63
00902:  DATA 6F,6D
00904:  DATA 6D,61
00906:  DATA 6E,64
00908:  DATA 0D,0A
0090A:  DATA 00,00
0090C:  DATA 0D,0A
0090E:  DATA 5B,44
00910:  DATA 45,42
00912:  DATA 55,47
00914:  DATA 5D,20
00916:  DATA 52,58
00918:  DATA 28,25
0091A:  DATA 64,29
0091C:  DATA 3A,20
0091E:  DATA 00,00
00920:  DATA 0D,0A
00922:  DATA 5B,49
00924:  DATA 4E,46
00926:  DATA 4F,5D
00928:  DATA 20,56
0092A:  DATA 61,6C
0092C:  DATA 69,64
0092E:  DATA 20,43
00930:  DATA 6F,6D
00932:  DATA 6D,61
00934:  DATA 6E,64
00936:  DATA 20,46
00938:  DATA 72,61
0093A:  DATA 6D,65
0093C:  DATA 20,52
0093E:  DATA 65,63
00940:  DATA 65,69
00942:  DATA 76,65
00944:  DATA 64,21
00946:  DATA 20,49
00948:  DATA 44,3A
0094A:  DATA 20,25
0094C:  DATA 30,32
0094E:  DATA 58,0D
00950:  DATA 0A,00
00952:  DATA 0D,0A
00954:  DATA 77,61
00956:  DATA 69,74
00958:  DATA 69,6E
0095A:  DATA 67,20
0095C:  DATA 66,6F
0095E:  DATA 72,20
00960:  DATA 42,4F
00962:  DATA 53,53
00964:  DATA 20,50
00966:  DATA 49,43
00968:  DATA 20,63
0096A:  DATA 6F,6D
0096C:  DATA 6D,61
0096E:  DATA 6E,64
00970:  DATA 0D,0A
00972:  DATA 00,00
00974:  DATA 0D,0A
00976:  DATA 0D,0A
00978:  DATA 3D,3D
0097A:  DATA 3D,3D
0097C:  DATA 3D,3D
0097E:  DATA 0D,0A
00980:  DATA 0D,0A
00982:  DATA 46,69
00984:  DATA 6E,69
00986:  DATA 73,68
00988:  DATA 65,64
0098A:  DATA 20,70
0098C:  DATA 72,6F
0098E:  DATA 63,65
00990:  DATA 73,73
00992:  DATA 2E,0D
00994:  DATA 0A,57
00996:  DATA 61,69
00998:  DATA 74,20
0099A:  DATA 66,6F
0099C:  DATA 72,20
0099E:  DATA 42,4F
009A0:  DATA 53,53
009A2:  DATA 20,50
009A4:  DATA 49,43
009A6:  DATA 20,74
009A8:  DATA 75,72
009AA:  DATA 6E,20
009AC:  DATA 6F,66
009AE:  DATA 66,20
009B0:  DATA 6D,65
009B2:  DATA 0D,0A
009B4:  DATA 00,00
009B6:  DATA 45,6E
009B8:  DATA 64,20
009BA:  DATA 6D,61
009BC:  DATA 69,6E
009BE:  DATA 0D,0A
009C0:  DATA 00,00
*
00A42:  TBLRD*+
00A44:  MOVF   FF5,F
00A46:  BTFSC  FD8.2
00A48:  GOTO   0A70
00A4C:  MOVFF  FF6,20C
00A50:  MOVFF  FF7,20D
00A54:  MOVFF  FF8,20E
00A58:  MOVFF  FF5,210
00A5C:  CALL   09F0
00A60:  MOVFF  20C,FF6
00A64:  MOVFF  20D,FF7
00A68:  MOVFF  20E,FF8
00A6C:  GOTO   0A42
00A70:  RETURN 0
00A72:  TBLRD*+
00A74:  MOVFF  FF6,20D
00A78:  MOVFF  FF7,20E
00A7C:  MOVFF  FF8,20F
00A80:  MOVFF  FF5,210
00A84:  CALL   09F0
00A88:  MOVFF  20D,FF6
00A8C:  MOVFF  20E,FF7
00A90:  MOVFF  20F,FF8
00A94:  MOVLB  2
00A96:  DECFSZ x0C,F
00A98:  BRA    0A9E
00A9A:  BRA    0AA4
00A9C:  MOVLB  0
00A9E:  MOVLB  0
00AA0:  GOTO   0A72
00AA4:  MOVLB  0
00AA6:  RETURN 0
*
00BAC:  MOVLB  2
00BAE:  MOVF   x2A,W
00BB0:  ANDLW  07
00BB2:  MOVWF  00
00BB4:  RRCF   x2A,W
00BB6:  MOVWF  01
00BB8:  RRCF   01,F
00BBA:  RRCF   01,F
00BBC:  MOVLW  1F
00BBE:  ANDWF  01,F
00BC0:  MOVF   01,W
00BC2:  ADDWF  x2C,W
00BC4:  MOVWF  FE9
00BC6:  MOVLW  00
00BC8:  ADDWFC x2D,W
00BCA:  MOVWF  FEA
00BCC:  CLRF   01
00BCE:  INCF   01,F
00BD0:  INCF   00,F
00BD2:  MOVLB  0
00BD4:  GOTO   0BDA
00BD8:  RLCF   01,F
00BDA:  DECFSZ 00,F
00BDC:  GOTO   0BD8
00BE0:  MOVLB  2
00BE2:  MOVF   x2B,F
00BE4:  BTFSS  FD8.2
00BE6:  BRA    0BEE
00BE8:  MOVLB  0
00BEA:  GOTO   0BF8
00BEE:  MOVF   01,W
00BF0:  IORWF  FEF,F
00BF2:  MOVLB  0
00BF4:  GOTO   0BFE
00BF8:  COMF   01,F
00BFA:  MOVF   01,W
00BFC:  ANDWF  FEF,F
00BFE:  RETURN 0
*
00FBC:  TSTFSZ 01
00FBE:  GOTO   0FCC
00FC2:  TSTFSZ 02
00FC4:  GOTO   0FCE
00FC8:  GOTO   0FDE
00FCC:  INCF   02,F
00FCE:  MOVFF  00,FEE
00FD2:  DECFSZ 01,F
00FD4:  GOTO   0FCE
00FD8:  DECFSZ 02,F
00FDA:  GOTO   0FCE
00FDE:  RETURN 0
*
013BA:  MOVLB  1
013BC:  BTFSS  x86.7
013BE:  BRA    13C6
013C0:  MOVLB  0
013C2:  GOTO   13F6
013C6:  MOVLW  0F
013C8:  MOVWF  00
013CA:  SWAPF  x85,W
013CC:  ANDWF  00,F
013CE:  MOVLW  0A
013D0:  SUBWF  00,W
013D2:  BTFSS  FD8.0
013D4:  BRA    13DC
013D6:  MOVLB  0
013D8:  GOTO   13E6
013DC:  MOVLW  30
013DE:  ADDWF  00,F
013E0:  MOVLB  0
013E2:  GOTO   13EE
013E6:  MOVLB  1
013E8:  MOVF   x86,W
013EA:  ADDWF  00,F
013EC:  MOVLB  0
013EE:  MOVFF  00,210
013F2:  CALL   09F0
013F6:  MOVLW  0F
013F8:  MOVLB  1
013FA:  ANDWF  x85,F
013FC:  MOVLW  0A
013FE:  SUBWF  x85,W
01400:  BTFSS  FD8.0
01402:  BRA    140A
01404:  MOVLB  0
01406:  GOTO   1412
0140A:  MOVLW  30
0140C:  MOVLB  0
0140E:  GOTO   141A
01412:  MOVLB  1
01414:  BCF    x86.7
01416:  MOVF   x86,W
01418:  MOVLB  0
0141A:  MOVLB  1
0141C:  ADDWF  x85,F
0141E:  MOVFF  185,210
01422:  MOVLB  0
01424:  CALL   09F0
01428:  RETURN 0
*
02170:  MOVLB  2
02172:  MOVF   x0F,W
02174:  CLRF   01
02176:  SUBWF  x0E,W
02178:  BTFSS  FD8.0
0217A:  BRA    2182
0217C:  MOVLB  0
0217E:  GOTO   218C
02182:  MOVF   x0E,W
02184:  MOVWF  00
02186:  MOVLB  0
02188:  GOTO   21B6
0218C:  CLRF   00
0218E:  MOVLW  08
02190:  MOVLB  2
02192:  MOVWF  x10
02194:  MOVLB  0
02196:  MOVLB  2
02198:  RLCF   x0E,F
0219A:  RLCF   00,F
0219C:  MOVF   x0F,W
0219E:  SUBWF  00,W
021A0:  BTFSC  FD8.0
021A2:  MOVWF  00
021A4:  RLCF   01,F
021A6:  DECFSZ x10,F
021A8:  BRA    21AE
021AA:  BRA    21B4
021AC:  MOVLB  0
021AE:  MOVLB  0
021B0:  GOTO   2196
021B4:  MOVLB  0
021B6:  RETURN 0
021B8:  MOVLW  20
021BA:  MOVLB  1
021BC:  BTFSS  x65.4
021BE:  MOVLW  30
021C0:  MOVWF  x66
021C2:  MOVFF  164,00
021C6:  BTFSC  00.7
021C8:  BRA    21D0
021CA:  MOVLB  0
021CC:  GOTO   21E2
021D0:  COMF   00,F
021D2:  INCF   00,F
021D4:  MOVFF  00,164
021D8:  MOVLW  2D
021DA:  MOVWF  x66
021DC:  BSF    x65.7
021DE:  BSF    x65.0
021E0:  MOVLB  0
021E2:  MOVF   01,W
021E4:  MOVFF  164,20E
021E8:  MOVLW  64
021EA:  MOVLB  2
021EC:  MOVWF  x0F
021EE:  MOVLB  0
021F0:  CALL   2170
021F4:  MOVFF  00,164
021F8:  MOVLW  30
021FA:  ADDWF  01,W
021FC:  MOVLB  1
021FE:  MOVWF  x67
02200:  MOVFF  164,20E
02204:  MOVLW  0A
02206:  MOVLB  2
02208:  MOVWF  x0F
0220A:  MOVLB  0
0220C:  CALL   2170
02210:  MOVLW  30
02212:  ADDWF  00,W
02214:  MOVLB  1
02216:  MOVWF  x69
02218:  MOVLW  30
0221A:  ADDWF  01,W
0221C:  MOVWF  x68
0221E:  MOVFF  166,00
02222:  MOVLB  0
02224:  MOVLW  30
02226:  MOVLB  1
02228:  SUBWF  x67,W
0222A:  BTFSS  FD8.2
0222C:  BRA    2234
0222E:  MOVLB  0
02230:  GOTO   2240
02234:  BSF    x65.1
02236:  BTFSC  x65.7
02238:  BSF    x65.2
0223A:  MOVLB  0
0223C:  GOTO   2280
02240:  MOVFF  166,167
02244:  MOVLW  20
02246:  MOVLB  1
02248:  MOVWF  x66
0224A:  MOVLW  30
0224C:  SUBWF  x68,W
0224E:  BTFSS  FD8.2
02250:  BRA    2258
02252:  MOVLB  0
02254:  GOTO   2264
02258:  BSF    x65.0
0225A:  BTFSC  x65.7
0225C:  BSF    x65.1
0225E:  MOVLB  0
02260:  GOTO   2280
02264:  BTFSC  FD8.2
02266:  BRA    226E
02268:  MOVLB  1
0226A:  BSF    x65.0
0226C:  MOVLB  0
0226E:  BTFSS  FD8.2
02270:  GOTO   2280
02274:  MOVFF  167,168
02278:  MOVLW  20
0227A:  MOVLB  1
0227C:  MOVWF  x67
0227E:  MOVLB  0
02280:  MOVLB  1
02282:  BTFSS  x65.2
02284:  BRA    228C
02286:  MOVLB  0
02288:  GOTO   22A6
0228C:  BTFSS  x65.1
0228E:  BRA    2296
02290:  MOVLB  0
02292:  GOTO   22AE
02296:  BTFSS  x65.0
02298:  BRA    22A0
0229A:  MOVLB  0
0229C:  GOTO   22B6
022A0:  MOVLB  0
022A2:  GOTO   22BE
022A6:  MOVFF  166,210
022AA:  CALL   09F0
022AE:  MOVFF  167,210
022B2:  CALL   09F0
022B6:  MOVFF  168,210
022BA:  CALL   09F0
022BE:  MOVFF  169,210
022C2:  CALL   09F0
022C6:  GOTO   3E3C (RETURN)
*
0297C:  MOVF   01,W
0297E:  MOVFF  20C,20E
02982:  MOVLW  64
02984:  MOVLB  2
02986:  MOVWF  x0F
02988:  MOVLB  0
0298A:  CALL   2170
0298E:  MOVFF  00,20C
02992:  MOVF   01,W
02994:  MOVLW  30
02996:  BTFSS  FD8.2
02998:  GOTO   29BC
0299C:  MOVLB  2
0299E:  BTFSC  x0D.1
029A0:  BRA    29A8
029A2:  MOVLB  0
029A4:  GOTO   29D0
029A8:  BTFSS  x0D.3
029AA:  BRA    29B2
029AC:  MOVLB  0
029AE:  GOTO   29D0
029B2:  BTFSC  x0D.4
029B4:  MOVLW  20
029B6:  MOVLB  0
029B8:  GOTO   29C6
029BC:  MOVLB  2
029BE:  BCF    x0D.3
029C0:  BCF    x0D.4
029C2:  BSF    x0D.0
029C4:  MOVLB  0
029C6:  ADDWF  01,F
029C8:  MOVFF  01,210
029CC:  CALL   09F0
029D0:  MOVFF  20C,20E
029D4:  MOVLW  0A
029D6:  MOVLB  2
029D8:  MOVWF  x0F
029DA:  MOVLB  0
029DC:  CALL   2170
029E0:  MOVFF  00,20C
029E4:  MOVF   01,W
029E6:  MOVLW  30
029E8:  BTFSS  FD8.2
029EA:  GOTO   2A0A
029EE:  MOVLB  2
029F0:  BTFSS  x0D.3
029F2:  BRA    29FA
029F4:  MOVLB  0
029F6:  GOTO   2A14
029FA:  BTFSC  x0D.0
029FC:  BRA    2A04
029FE:  MOVLB  0
02A00:  GOTO   2A14
02A04:  BTFSC  x0D.4
02A06:  MOVLW  20
02A08:  MOVLB  0
02A0A:  ADDWF  01,F
02A0C:  MOVFF  01,210
02A10:  CALL   09F0
02A14:  MOVLW  30
02A16:  MOVLB  2
02A18:  ADDWF  x0C,F
02A1A:  MOVFF  20C,210
02A1E:  MOVLB  0
02A20:  CALL   09F0
02A24:  RETURN 0
*
03190:  BTFSC  FD8.1
03192:  GOTO   319E
03196:  MOVLW  01
03198:  MOVWF  FEA
0319A:  MOVLW  80
0319C:  MOVWF  FE9
0319E:  CLRF   00
031A0:  CLRF   01
031A2:  CLRF   02
031A4:  CLRF   03
031A6:  MOVLB  1
031A8:  CLRF   x80
031AA:  CLRF   x81
031AC:  CLRF   x82
031AE:  CLRF   x83
031B0:  MOVF   x7F,W
031B2:  IORWF  x7E,W
031B4:  IORWF  x7D,W
031B6:  IORWF  x7C,W
031B8:  BTFSS  FD8.2
031BA:  BRA    31C2
031BC:  MOVLB  0
031BE:  GOTO   3252
031C2:  MOVLB  0
031C4:  MOVLW  20
031C6:  MOVLB  1
031C8:  MOVWF  x84
031CA:  MOVLB  0
031CC:  BCF    FD8.0
031CE:  MOVLB  1
031D0:  RLCF   x78,F
031D2:  RLCF   x79,F
031D4:  RLCF   x7A,F
031D6:  RLCF   x7B,F
031D8:  RLCF   x80,F
031DA:  RLCF   x81,F
031DC:  RLCF   x82,F
031DE:  RLCF   x83,F
031E0:  MOVF   x7F,W
031E2:  SUBWF  x83,W
031E4:  BTFSC  FD8.2
031E6:  BRA    31EE
031E8:  MOVLB  0
031EA:  GOTO   3210
031EE:  MOVF   x7E,W
031F0:  SUBWF  x82,W
031F2:  BTFSC  FD8.2
031F4:  BRA    31FC
031F6:  MOVLB  0
031F8:  GOTO   3210
031FC:  MOVF   x7D,W
031FE:  SUBWF  x81,W
03200:  BTFSC  FD8.2
03202:  BRA    320A
03204:  MOVLB  0
03206:  GOTO   3210
0320A:  MOVF   x7C,W
0320C:  SUBWF  x80,W
0320E:  MOVLB  0
03210:  BTFSS  FD8.0
03212:  GOTO   3238
03216:  MOVLB  1
03218:  MOVF   x7C,W
0321A:  SUBWF  x80,F
0321C:  MOVF   x7D,W
0321E:  BTFSS  FD8.0
03220:  INCFSZ x7D,W
03222:  SUBWF  x81,F
03224:  MOVF   x7E,W
03226:  BTFSS  FD8.0
03228:  INCFSZ x7E,W
0322A:  SUBWF  x82,F
0322C:  MOVF   x7F,W
0322E:  BTFSS  FD8.0
03230:  INCFSZ x7F,W
03232:  SUBWF  x83,F
03234:  BSF    FD8.0
03236:  MOVLB  0
03238:  RLCF   00,F
0323A:  RLCF   01,F
0323C:  RLCF   02,F
0323E:  RLCF   03,F
03240:  MOVLB  1
03242:  DECFSZ x84,F
03244:  BRA    324A
03246:  BRA    3250
03248:  MOVLB  0
0324A:  MOVLB  0
0324C:  GOTO   31CC
03250:  MOVLB  0
03252:  MOVFF  180,FEF
03256:  MOVFF  181,FEC
0325A:  MOVFF  182,FEC
0325E:  MOVFF  183,FEC
03262:  MOVF   FED,F
03264:  MOVF   FED,F
03266:  MOVF   FED,F
03268:  RETURN 0
0326A:  MOVF   FE9,W
0326C:  MOVLB  1
0326E:  MOVWF  x70
03270:  MOVLW  3B
03272:  MOVWF  x77
03274:  MOVLW  9A
03276:  MOVWF  x76
03278:  MOVLW  CA
0327A:  MOVWF  x75
0327C:  CLRF   x74
0327E:  MOVLW  0A
03280:  MOVWF  x72
03282:  MOVLB  0
03284:  BSF    FD8.1
03286:  MOVLW  01
03288:  MOVWF  FEA
0328A:  MOVLW  6C
0328C:  MOVWF  FE9
0328E:  MOVFF  16F,17B
03292:  MOVFF  16E,17A
03296:  MOVFF  16D,179
0329A:  MOVFF  16C,178
0329E:  MOVFF  177,17F
032A2:  MOVFF  176,17E
032A6:  MOVFF  175,17D
032AA:  MOVFF  174,17C
032AE:  CALL   3190
032B2:  MOVF   01,W
032B4:  MOVF   00,F
032B6:  BTFSS  FD8.2
032B8:  GOTO   3310
032BC:  MOVLB  1
032BE:  MOVF   x72,W
032C0:  XORLW  01
032C2:  BTFSS  FD8.2
032C4:  BRA    32CC
032C6:  MOVLB  0
032C8:  GOTO   3310
032CC:  MOVF   x70,W
032CE:  BTFSS  FD8.2
032D0:  BRA    32D8
032D2:  MOVLB  0
032D4:  GOTO   3316
032D8:  ANDLW  0F
032DA:  SUBWF  x72,W
032DC:  BTFSS  FD8.2
032DE:  BRA    32E6
032E0:  MOVLB  0
032E2:  GOTO   32F2
032E6:  BTFSS  FD8.0
032E8:  BRA    32F0
032EA:  MOVLB  0
032EC:  GOTO   3322
032F0:  MOVLB  0
032F2:  MOVLB  1
032F4:  BTFSS  x70.7
032F6:  BRA    32FE
032F8:  MOVLB  0
032FA:  GOTO   3322
032FE:  BTFSS  x70.6
03300:  BRA    3308
03302:  MOVLB  0
03304:  GOTO   3316
03308:  MOVLW  20
0330A:  MOVLB  0
0330C:  GOTO   3318
03310:  MOVLB  1
03312:  CLRF   x70
03314:  MOVLB  0
03316:  MOVLW  30
03318:  ADDWF  00,F
0331A:  MOVFF  00,210
0331E:  CALL   09F0
03322:  BCF    FD8.1
03324:  MOVFF  177,17B
03328:  MOVFF  176,17A
0332C:  MOVFF  175,179
03330:  MOVFF  174,178
03334:  MOVLB  1
03336:  CLRF   x7F
03338:  CLRF   x7E
0333A:  CLRF   x7D
0333C:  MOVLW  0A
0333E:  MOVWF  x7C
03340:  MOVLB  0
03342:  CALL   3190
03346:  MOVFF  03,177
0334A:  MOVFF  02,176
0334E:  MOVFF  01,175
03352:  MOVFF  00,174
03356:  MOVLB  1
03358:  DECFSZ x72,F
0335A:  BRA    3360
0335C:  BRA    3366
0335E:  MOVLB  0
03360:  MOVLB  0
03362:  GOTO   3284
03366:  MOVLB  0
03368:  GOTO   34EC (RETURN)
.................... 
.................... #list
.................... 
.................... #opt 0 // 0 = no optimization
.................... 
.................... #use delay(crystal=16MHz)
*
009C2:  MOVLW  02
009C4:  MOVWF  FEA
009C6:  MOVLW  24
009C8:  MOVWF  FE9
009CA:  MOVF   FEF,W
009CC:  BTFSC  FD8.2
009CE:  GOTO   09EE
009D2:  MOVLW  05
009D4:  MOVWF  01
009D6:  CLRF   00
009D8:  DECFSZ 00,F
009DA:  BRA    09D8
009DC:  DECFSZ 01,F
009DE:  BRA    09D6
009E0:  MOVLW  2E
009E2:  MOVWF  00
009E4:  DECFSZ 00,F
009E6:  BRA    09E4
009E8:  BRA    09EA
009EA:  DECFSZ FEF,F
009EC:  BRA    09D2
009EE:  RETURN 0
.................... #fuses HS, NOWDT, NOBROWNOUT, NOPROTECT
.................... 
.................... #define PIC18
.................... 
.................... #ifdef PIC18
....................     // ==========================================
....................     // 1. ハードウェア構成とピンアサイン
....................     // ==========================================
.................... 
....................     #define PIN_LDO_EN          PIN_E1
....................     #define PIN_VREF_EN         PIN_E0
....................     #define PIN_LED1            PIN_A5
....................     #define PIN_LED2            PIN_A1
.................... 
....................     #define PIN_SW_DIO1         PIN_C1
....................     #define PIN_SW_DIO0         PIN_C2
.................... 
....................     // SPI Chip Select (BOSSヘッダ名称に適合)
....................     #define MIS_FM_CS           PIN_B1
....................     #define SMF_CS              PIN_D4
....................     #define PIN_CS_ADC          PIN_B3
.................... 
.................... // ------------------------------------------
....................     // UART 通信設定
....................     // ------------------------------------------
....................     #use rs232(baud=9600, parity=N, xmit=PIN_G0, bits=8, stream=PC, FORCE_SW, ERRORS)
009F0:  BCF    F98.0
009F2:  BCF    F8F.0
009F4:  MOVLW  08
009F6:  MOVWF  01
009F8:  BRA    09FA
009FA:  NOP   
009FC:  BSF    01.7
009FE:  GOTO   0A26
00A02:  BCF    01.7
00A04:  MOVLB  2
00A06:  RRCF   x10,F
00A08:  MOVLB  0
00A0A:  BTFSC  FD8.0
00A0C:  BSF    F8F.0
00A0E:  BTFSS  FD8.0
00A10:  BCF    F8F.0
00A12:  BSF    01.6
00A14:  GOTO   0A26
00A18:  BCF    01.6
00A1A:  DECFSZ 01,F
00A1C:  GOTO   0A04
00A20:  BRA    0A22
00A22:  NOP   
00A24:  BSF    F8F.0
00A26:  MOVLW  84
00A28:  MOVWF  FE9
00A2A:  DECFSZ FE9,F
00A2C:  GOTO   0A2A
00A30:  BRA    0A32
00A32:  NOP   
00A34:  BTFSC  01.7
00A36:  GOTO   0A02
00A3A:  BTFSC  01.6
00A3C:  GOTO   0A18
00A40:  RETURN 0
.................... 
....................     // BOSS側: D1/D0ピンにハードウェアUART3を割り当てて使用する
....................     #pin_select TX3=PIN_D1
....................     #pin_select RX3=PIN_D0
....................     #use rs232(baud=9600, parity=N, UART3, bits=8, stream=BOSS, ERRORS)
*
0214A:  BTFSS  FA6.5
0214C:  GOTO   214A
02150:  MOVLB  F
02152:  MOVF   x2F,W
02154:  MOVWF  1B
02156:  MOVLB  0
02158:  MOVLB  F
0215A:  MOVF   x2A,W
0215C:  MOVWF  01
0215E:  BTFSC  1B.1
02160:  BRA    2168
02162:  MOVLB  0
02164:  GOTO   216E
02168:  BCF    x2F.4
0216A:  BSF    x2F.4
0216C:  MOVLB  0
0216E:  RETURN 0
*
0280A:  BTFSS  FA6.4
0280C:  GOTO   280A
02810:  MOVLB  F
02812:  MOVWF  x29
02814:  MOVLB  0
02816:  GOTO   284C (RETURN)
.................... 
....................     // ------------------------------------------
....................     // SPI 通信設定
....................     // ------------------------------------------
....................     #use spi(MASTER, BAUD=1000000, MODE=0, BITS=8, DI=PIN_B5, DO=PIN_B4, CLK=PIN_B2, stream=MIS_FM_STREAM, FORCE_SW)
*
00C00:  MOVLB  2
00C02:  MOVF   x47,W
00C04:  SUBLW  08
00C06:  BTFSS  FD8.2
00C08:  BRA    0C10
00C0A:  MOVLB  0
00C0C:  GOTO   0C28
00C10:  MOVWF  x49
00C12:  MOVLB  0
00C14:  MOVLB  2
00C16:  RLCF   x46,F
00C18:  DECFSZ x49,F
00C1A:  BRA    0C20
00C1C:  BRA    0C26
00C1E:  MOVLB  0
00C20:  MOVLB  0
00C22:  GOTO   0C14
00C26:  MOVLB  0
00C28:  BSF    F93.5
00C2A:  BCF    F93.4
00C2C:  BCF    F93.2
00C2E:  BCF    F8A.2
00C30:  MOVFF  247,249
00C34:  MOVLB  2
00C36:  BTFSS  x46.7
00C38:  BCF    F8A.4
00C3A:  BTFSC  x46.7
00C3C:  BSF    F8A.4
00C3E:  RLCF   x46,F
00C40:  BSF    F8A.2
00C42:  RLCF   01,F
00C44:  BTFSS  F81.5
00C46:  BCF    01.0
00C48:  BTFSC  F81.5
00C4A:  BSF    01.0
00C4C:  BCF    F8A.2
00C4E:  DECFSZ x49,F
00C50:  BRA    0C56
00C52:  BRA    0C5C
00C54:  MOVLB  0
00C56:  MOVLB  0
00C58:  GOTO   0C34
00C5C:  MOVLB  0
00C5E:  RETURN 0
....................     #use spi(MASTER, BAUD=1000000, MODE=0, BITS=8, DI=PIN_D6, DO=PIN_D7, CLK=PIN_D5, stream=SMF_STREAM, FORCE_SW)
00C60:  MOVLB  2
00C62:  MOVF   x47,W
00C64:  SUBLW  08
00C66:  BTFSS  FD8.2
00C68:  BRA    0C70
00C6A:  MOVLB  0
00C6C:  GOTO   0C88
00C70:  MOVWF  x49
00C72:  MOVLB  0
00C74:  MOVLB  2
00C76:  RLCF   x46,F
00C78:  DECFSZ x49,F
00C7A:  BRA    0C80
00C7C:  BRA    0C86
00C7E:  MOVLB  0
00C80:  MOVLB  0
00C82:  GOTO   0C74
00C86:  MOVLB  0
00C88:  BSF    F95.6
00C8A:  BCF    F95.7
00C8C:  BCF    F95.5
00C8E:  BCF    F8C.5
00C90:  MOVFF  247,249
00C94:  MOVLB  2
00C96:  BTFSS  x46.7
00C98:  BCF    F8C.7
00C9A:  BTFSC  x46.7
00C9C:  BSF    F8C.7
00C9E:  RLCF   x46,F
00CA0:  BSF    F8C.5
00CA2:  RLCF   01,F
00CA4:  BTFSS  F83.6
00CA6:  BCF    01.0
00CA8:  BTFSC  F83.6
00CAA:  BSF    01.0
00CAC:  BCF    F8C.5
00CAE:  DECFSZ x49,F
00CB0:  BRA    0CB6
00CB2:  BRA    0CBC
00CB4:  MOVLB  0
00CB6:  MOVLB  0
00CB8:  GOTO   0C94
00CBC:  MOVLB  0
00CBE:  RETURN 0
.................... 
.................... #endif
.................... 
.................... // ==========================================
.................... // 2. システムシーケンス コマンド定義
.................... // ==========================================
.................... #define CMD_MISSION_START       0x10
.................... #define RES_MISSION_DONE        0x11
.................... #define CMD_SMF_PREPARE         0x20
.................... #define REQ_SMF_COPY            0x21
.................... #define CMD_SMF_PERMIT          0x22
.................... #define REQ_POWER_OFF           0x30
.................... 
.................... // ==========================================
.................... // 3. データフォーマット・バッファ定義
.................... // ==========================================
.................... #define PACKET_SIZE             64
.................... #define FLASH_PAGE_SIZE         256
.................... #define PACKETS_PER_PAGE        4
.................... #define SMF_TRANSFER_PACKETS    15
.................... 
.................... // ヘッダー構造体 (8Byte)
.................... typedef struct
.................... {
....................     unsigned int32 timestamp;      // 4 Byte
....................     unsigned int8  mode : 3;       // 3 bit
....................     unsigned int8  channel : 1;    // 1 bit
....................     unsigned int8  samplingRate : 4; // 4 bit
....................     unsigned int16 dataCount;      // 12bitではなく16bit(2Byte)で確保しエラーを回避
....................     unsigned int8  zeroFill;       // 1 Byte (合計8Byteにするため)
.................... } PacketHeader;
.................... 
.................... typedef struct
.................... {
....................     PacketHeader header;           // 8 Byte
....................     unsigned int8 packetNum;       // 1 Byte
....................     unsigned int16 adcData[27];    // 54 Byte
....................     unsigned int8 crc8;            // 1 Byte
.................... } FirstPacket;
.................... 
.................... typedef struct
.................... {
....................     unsigned int8 packetNum;       // 1 Byte
....................     unsigned int16 adcData[31];    // 62 Byte
....................     unsigned int8 crc8;            // 1 Byte
.................... } SubsequentPacket;
.................... 
.................... typedef union
.................... {
....................     unsigned int8 raw[PACKET_SIZE];
....................     FirstPacket first;
....................     SubsequentPacket sub;
.................... } PacketBuffer;
.................... 
.................... #endif // son_tmp_CONFIG_H
.................... 
.................... 
.................... // レベル2: ハードウェア抽象化層
.................... #include "../hardware/mcu/timer.h"
.................... #ifndef TIMER_H
.................... #define TIMER_H
.................... 
.................... #include <stdint.h>
.................... ///////////////////////////////////////////////////////////////////////////
.................... ////                                                                   ////
.................... ////                           stdint.h                                ////
.................... ////                                                                   ////
.................... //// Standard integer definitions.                                     ////
.................... ////                                                                   ////
.................... ///////////////////////////////////////////////////////////////////////////
.................... ////        (C) Copyright 1996,2008 Custom Computer Services           ////
.................... //// This source code may only be used by licensed users of the CCS C  ////
.................... //// compiler.  This source code may only be distributed to other      ////
.................... //// licensed users of the CCS C compiler.  No other use, reproduction ////
.................... //// or distribution is permitted without written permission.          ////
.................... //// Derivative programs created using this software in object code    ////
.................... //// form are not restricted in any way.                               ////
.................... ///////////////////////////////////////////////////////////////////////////
.................... 
.................... #ifndef _STDINT
.................... 
.................... #define _STDINT
.................... 
.................... //////////// exact width
.................... 
.................... typedef signed int8 int8_t;
.................... typedef unsigned int8 uint8_t;
.................... typedef signed int16 int16_t;
.................... typedef unsigned int16 uint16_t;
.................... typedef signed int32 int32_t;
.................... typedef unsigned int32 uint32_t;
.................... 
.................... #if defined(__PCD__)
.................... //typedef signed int24 int24_t;
.................... //typedef unsigned int24 uint24_t;
.................... typedef signed int64 int64_t;
.................... typedef unsigned int64 uint64_t;
.................... #endif
.................... 
.................... #define INT8_MAX  (127)
.................... #define INT8_MIN  (-128)
.................... #define UINT8_MAX (255)
.................... 
.................... #define INT16_MAX  (32767)
.................... #define INT16_MIN  (-32768)
.................... #define UINT16_MAX (65535)
.................... 
.................... #define INT32_MAX  (2147483647)
.................... #define INT32_MIN  (-2147483648)
.................... #define UINT32_MAX (4294967295)
.................... 
.................... #if defined(__PCD__)
.................... //#define INT24_MAX  (8388607)
.................... //#define INT24_MIN  (-8388608)
.................... //#define UINT24_MAX (16777215)
.................... 
.................... #define INT64_MAX  (9223372036854775807)
.................... #define INT64_MIN  (-9223372036854775808)
.................... #define UINT64_MAX (18446744073709551615)
.................... #endif
.................... 
.................... ///////// minimum width
.................... 
.................... typedef signed int8 int_least8_t;
.................... typedef unsigned int8 uint_least8_t;
.................... typedef signed int16 int_least16_t;
.................... typedef unsigned int16 uint_least16_t;
.................... typedef signed int32 int_least32_t;
.................... typedef unsigned int32 uint_least32_t;
.................... 
.................... #if defined(__PCD__)
.................... //typedef signed int24 int_least24_t;
.................... //typedef unsigned int24 uint_least24_t;
.................... typedef signed int64 int_least64_t;
.................... typedef unsigned int64 uint_least64_t;
.................... #endif
.................... 
.................... #define INT_LEAST8_MAX  (127)
.................... #define INT_LEAST8_MIN  (-128)
.................... #define UINT_LEAST8_MAX (255)
.................... 
.................... #define INT_LEAST16_MAX  (32767)
.................... #define INT_LEAST16_MIN  (-32768)
.................... #define UINT_LEAST16_MAX (65535)
.................... 
.................... #define INT_LEAST32_MAX  (2147483647)
.................... #define INT_LEAST32_MIN  (-2147483648)
.................... #define UINT_LEAST32_MAX (4294967295)
.................... 
.................... #if defined(__PCD__)
.................... //#define INT_LEAST24_MAX  (8388607)
.................... //#define INT_LEAST24_MIN  (-8388608)
.................... //#define UINT_LEAST24_MAX (16777215)
.................... 
.................... #define INT_LEAST64_MAX  (9223372036854775807)
.................... #define INT_LEAST64_MIN  (-9223372036854775808)
.................... #define UINT_LEAST64_MAX (18446744073709551615)
.................... #endif
.................... 
.................... ///////// fastest width
.................... 
.................... #if defined(__PCD__)
.................... typedef signed int16 int_fast8_t;
.................... typedef unsigned int16 uint_fast8_t;
.................... #define INT_FAST8_MAX  (32767)
.................... #define INT_FAST8_MIN  (-32768)
.................... #define UINT_FAST8_MAX (65535)
.................... typedef signed int16 int_fast16_t;
.................... typedef unsigned int16 uint_fast16_t;
.................... //typedef signed int24 int_fast24_t;
.................... //typedef unsigned int24 uint_fast24_t;
.................... typedef signed int64 int_fast64_t;
.................... typedef unsigned int64 uint_fast64_t;
.................... #else
.................... typedef signed int8 int_fast8_t;
.................... typedef unsigned int8 uint_fast8_t;
.................... #define INT_FAST8_MAX  (127)
.................... #define INT_FAST8_MIN  (-128)
.................... #define UINT_FAST8_MAX (255)
.................... typedef signed int16 int_fast16_t;
.................... typedef unsigned int16 uint_fast16_t;
.................... #endif
.................... 
.................... typedef signed int32 int_fast32_t;
.................... typedef unsigned int32 uint_fast32_t;
.................... 
.................... #define INT_FAST16_MAX  (32767)
.................... #define INT_FAST16_MIN  (-32768)
.................... #define UINT_FAST16_MAX (65535)
.................... 
.................... #define INT_FAST32_MAX  (2147483647)
.................... #define INT_FAST32_MIN  (-2147483648)
.................... #define UINT_FAST32_MAX (4294967295)
.................... 
.................... #if defined(__PCD__)
.................... //#define INT_FAST24_MAX  (8388607)
.................... //#define INT_FAST24_MIN  (-8388608)
.................... //#define UINT_FAST24_MAX (16777215)
.................... 
.................... #define INT_FAST64_MAX  (9223372036854775807)
.................... #define INT_FAST64_MIN  (-9223372036854775808)
.................... #define UINT_FAST64_MAX (18446744073709551615)
.................... #endif
.................... 
.................... //////////// big enough to hold pointers (OPTIONAL)
.................... 
.................... #if defined(__PCD__)
....................    typedef unsigned int32 uintptr_t;
....................    typedef signed int32 intptr_t;
.................... #else
....................    typedef unsigned int16 uintptr_t;
....................    typedef signed int16 intptr_t;
.................... #endif
.................... 
.................... #define INT8_C(val) ((int8_t)val)
.................... #define UINT8_C(val) ((uint8_t)val)
.................... #define INT16_C(val) ((int16_t)val)
.................... #define UINT16_C(val) ((uint16_t)val)
.................... #define INT32_C(val) ((int32_t)val)
.................... #define UINT32_C(val) ((uint32_t)val)
.................... 
.................... #if defined(__PCD__)
.................... #define INT64_C(val) ((int64_t)val)
.................... #define UINT64_C(val) ((uint64_t)val)
.................... #endif
.................... 
.................... /// TODO:
.................... /// INTPTRN_MIN INTPTRN_MAX UINTPTRN_MAX
.................... 
.................... 
.................... /////////// greatest width (OPTIONAL)
.................... 
.................... #ifdef __PCD__
....................    typedef signed int64 intmax_t;
....................    typedef unsigned int64 uintmax_t;
....................    
....................    #define INTMAXN_MAX  (9223372036854775807)
....................    #define INTMAXN_MIN  (-9223372036854775808)
....................    #define UINTMAXN_MAX (18446744073709551615)
....................    
....................    #define INTMAX_C(value) ((signed int64)val)
....................    #define UINTMAX_C(value) ((unsigned int64)val)
.................... #else
....................    typedef signed int32 intmax_t;
....................    typedef unsigned int32 uintmax_t;
....................    
....................    #define INTMAXN_MAX  (2147483647)
....................    #define INTMAXN_MIN  (-2147483648)
....................    #define UINTMAXN_MAX (4294967295)
....................    
....................    #define INTMAX_C(value) ((signed int32)val)
....................    #define UINTMAX_C(value) ((unsigned int32)val)
.................... #endif
.................... 
.................... 
.................... #endif
.................... 
.................... 
.................... 
.................... // __________ values _________
.................... 
.................... // パケットヘッダーの timestamp で使用するための秒カウンタ
.................... extern volatile uint32_t sec;
.................... 
.................... 
.................... // __________ functions _________
.................... uint32_t get_current_sec();
.................... void set_current_sec(uint32_t new_sec);
.................... void setup_timer();
.................... 
.................... #INT_TIMER1
.................... void TIMER1_isr();
.................... 
.................... #endif
.................... 
.................... #include "../hardware/mcu/uart.h"
.................... #ifndef UART_H
.................... #define UART_H
.................... 
.................... // _________ defines ________________
.................... 
.................... #define RECEIVE_BUFFER_MAX 32
.................... 
.................... 
.................... // _____________ values _______________
.................... 
.................... extern volatile unsigned int8 boss_receive_buffer[RECEIVE_BUFFER_MAX];
.................... extern volatile int8 boss_receive_buffer_size;
.................... 
.................... 
.................... // _______________ functions ___________
.................... 
.................... #INT_RDA3
.................... static void RDA_isr(void);
.................... 
.................... void setup_uart_to_boss();
.................... 
.................... void clear_receive_signal(unsigned int8 receive_signal[], int8 *receive_signal_size);
.................... 
.................... 
.................... 
.................... #endif
.................... 
.................... 
.................... 
.................... // レベル3: 基本ライブラリヘッダー（型定義・通信・ツール）
.................... #include "../../lib/communication/typedef_content.h"
.................... #ifndef TYPEDEF_CONTENT_H
.................... #define TYPEDEF_CONTENT_H
.................... 
.................... // there is used in main.c
.................... 
.................... typedef enum {
....................     EXECUTING_MISSION = 0x02,
....................     IDLE              = 0x03,
....................     SMF_USE_REQ       = 0x04,
....................     COPYING           = 0x05,
....................     FINISHED          = 0x06
.................... } MisMcuStatusContent;
.................... 
.................... 
.................... typedef enum {
....................     ALLOW = 0x01,
....................     DENY  = 0x00
.................... } IsSmfAvailableContent;
.................... 
.................... 
.................... #endif
.................... 
.................... 
.................... #include "../../lib/communication/value_status.h"
.................... #ifndef VALUE_STATUS_H
.................... #define VALUE_STATUS_H
.................... 
.................... // there is used in main.c and mission
.................... 
.................... extern unsigned int8 status;
.................... extern int1 is_use_smf_req_in_mission;
.................... 
.................... //volatile int1 is_use_smf_req_in_mission = FALSE;
.................... //volatile int8 status[4] = {IDLE, 0, 0, 0};
.................... 
.................... 
.................... #endif
.................... 
.................... 
.................... #include "../../lib/tool/calc_tools.h"
.................... #ifndef CALC_TOOLS_H
.................... #define CALC_TOOLS_H
....................  
.................... unsigned int8 calc_crc8(unsigned int8 *frame, unsigned int8 payload_size);
.................... int1 is_crc_valid(unsigned int8 *frame, int8 payload_size);
.................... void int32_to_be_array(int32 value, int8 *buf, int8 index);
.................... int32 lsb_array_to_int32(int8 *buf, int8 index);
.................... unsigned int32 lsb_to_msb(unsigned int32 value);
.................... unsigned int32 msb_to_lsb(unsigned int32 value);
.................... 
.................... 
.................... #endif // CALC_TOOLS_H  
.................... 
.................... #include "../../lib/tool/smf_queue.h"
.................... #ifndef SMF_QUEUE_H
.................... #define SMF_QUEUE_H
.................... 
.................... typedef enum {
....................    ENUM_SMF_WRITE,    // SMF書き込み操作
....................    ENUM_SMF_READ,     // SMF読み込み操作
....................    ENUM_SMF_ERASE     // SMF消去操作
.................... } FunctionType;
.................... 
.................... // SMF書き込みモード
.................... typedef enum {
....................    SMF_WRITE_OVERWRITE = 0x00,  // 上書きモード
....................    SMF_WRITE_APPEND = 0x01,     // 追記モード
....................    SMF_WRITE_CIRCULAR = 0x02    // 循環書き込みモード（endまで行ったらstartに戻る）
.................... } SmfWriteMode;
.................... 
.................... // データソースタイプ
.................... typedef enum {
....................    SOURCE_MISF_UNCOPIED = 0x00, // MISF未コピーデータを転送
....................    SOURCE_MISF_MANUAL = 0x01    // MISF指定アドレス・サイズを転送
.................... } DataSourceType;
.................... 
.................... 
.................... typedef enum{
....................    CIGS_DATA_TABLE,
....................    CIGS_PICLOG_DATA,
....................    CIGS_ENVIRO_DATA,
....................    CIGS_IV_HEADER,
....................    CIGS_IV_DATA,
.................... } MissionID;
.................... 
.................... 
.................... 
.................... typedef struct {
....................    int32 start_address;
....................    int32 end_address;
.................... } SmfAddressStruct;
.................... 
.................... typedef struct{
....................    int32 misf_start_address;
....................    int32 misf_size;
.................... } SmfWriteStruct;
.................... 
.................... typedef struct {
....................     MissionID mission_id;                // ミッションID
....................     FunctionType func_type;         // 操作タイプ
....................     SmfWriteMode write_mode;        // 書き込みモード（書き込み時のみ）
....................     DataSourceType source_type;     // データソースタイプ
....................     int32 misf_start_addr;          // MISF手動指定時の開始アドレス
....................     int32 misf_size;                // MISF手動指定時のサイズ
.................... } FlashOperationStruct;
.................... 
.................... #define SMF_QUEUE_SIZE 16
.................... typedef struct {
....................    FlashOperationStruct entries[SMF_QUEUE_SIZE];  // キューエントリー配列
....................    int8 head_index;                               // 取り出し位置（読み取りインデックス）
....................    int8 tail_index;                               // 追加位置（書き込みインデックス）
.................... } FlashQueueStruct;
.................... 
.................... 
.................... 
.................... // _____________________ values _________________
.................... 
.................... volatile FlashQueueStruct flash_queue = {0};
.................... 
.................... // MISF/SMF統合管理インスタンス（ミッション別）
.................... //volatile MisfSmfManagerStruct misf_smf_manager[8] = {0}; // 最大8ミッション対応
.................... 
.................... 
.................... // ___________________ functions ________________
.................... 
.................... // MISF/SMF管理関数
.................... void init_misf_smf_manager(int8 mission_id, int32 misf_start, int32 misf_size, int32 smf_start, int32 smf_size);
.................... void update_misf_data(int8 mission_id, int32 data_size);
.................... void process_misf_to_smf_transfer(int8 mission_id);
.................... int32 get_uncopied_data_size(int8 mission_id);
.................... void mark_data_copied(int8 mission_id, int32 copied_size);
.................... int1 is_misf_full(int8 mission_id);
.................... //MisfSmfManagerStruct* get_misf_smf_manager(int8 mission_id);
.................... 
.................... void enqueue_flash_operation(FlashOperationStruct *data);
.................... 
.................... FlashOperationStruct *dequeue_flash_operation();
.................... 
.................... FlashOperationStruct *peek_flash_operation(void);
.................... 
.................... void remove_flash_operation(void);
.................... 
.................... int1 is_empty_flash_queue(void);
.................... 
.................... SmfAddressStruct get_smf_address_struct(MissionID mission_id);
.................... 
.................... // 便利な関数
.................... void enqueue_uncopied_data(int8 mission_id, SmfWriteMode write_mode);
.................... void enqueue_manual_data(int8 mission_id, int32 misf_addr, int32 size, SmfWriteMode write_mode);
.................... void enqueue_read_data(int32 smf_addr, int32 size);
.................... void enqueue_erase_data(int32 smf_addr, int32 size);
.................... 
.................... // 統合管理対応の便利な関数
.................... void enqueue_auto_transfer(int8 mission_id);  // 未コピーデータの自動転送
.................... void complete_transfer_and_update_counter(int8 mission_id, int32 transferred_size);  // 転送完了とカウンタ更新
.................... 
.................... SmfWriteStruct get_smf_write_struct(MissionID mission_id);
.................... #endif   //SMF_QUEUE_H
.................... 
.................... #include "../../lib/tool/mmj_smf_memorymap.h"
.................... #ifndef SMF_MEMORY_MAP_H
.................... #define SMF_MEMORY_MAP_H
.................... 
.................... /*
....................  * Auto-generated Memory Map Header
....................  * Generated from: MMJ_ICD_021_IICD_06_Memory_map.xlsx
....................  * Generated at: 2025-07-27 20:54:05
....................  */
.................... 
.................... #ifndef PACKET_SIZE
.................... #define PACKET_SIZE 64
.................... #endif
.................... 
.................... typedef struct {
....................     unsigned int32 used_size;
....................     unsigned int8 loop_counter;
....................     unsigned int8 reserved[3];
.................... } partition_header_t;
.................... 
.................... // payloadに複数のpartition_headerを並べる
.................... typedef union {
....................     unsigned int8 bytes[PACKET_SIZE];  // 生データアクセス用
.................... 
....................     struct {
....................         union {
....................             struct {
....................                 partition_header_t piclog;
....................                 partition_header_t enviroment;
....................                 partition_header_t iv_head;
....................                 partition_header_t iv_data;
....................             }cigs;
.................... 
....................             struct {
....................                 partition_header_t piclog;
....................                 partition_header_t enviroment;
....................                 partition_header_t iv_head;
....................                 partition_header_t iv_data;
....................             } satolab;
....................             // フラットにアクセスしたいとき用
....................             partition_header_t headers[(PACKET_SIZE - 1) / sizeof(partition_header_t)];
....................         } payload;
.................... 
....................         unsigned int8 crc;  // 最後の1バイト
....................     };
.................... } smf_data_table_t;
.................... 
.................... // Base Memory Configuration
.................... #define SMF_SIZE 0x08000000 // 128MB
.................... #define SMF_START_ADDRESS 0x00000000
.................... #define SMF_END_ADDRESS   0x07FFFFFF
.................... 
.................... 
.................... // ===== Device IDs from メモリマップ  =====
.................... #define MAIN_DEVICE_ID 0x10
.................... #define COM_DEVICE_ID 0x20
.................... #define APRS_DEVICE_ID 0x60
.................... #define CAM_DEVICE_ID 0x70
.................... #define CHO_DEVICE_ID 0x80
.................... #define SATO_DEVICE_ID 0x90
.................... #define BHU_DEVICE_ID 0xB0
.................... #define CIGS_DEVICE_ID 0xC0
.................... 
.................... // ===== Data IDs from メモリマップ  =====
.................... #define ID_MAIN_ADDRESS_AREA 0x10
.................... #define ID_MAIN_ADDRESS 0x11
.................... #define ID_MAIN_RESERVED_COMMAND 0x12
.................... #define ID_MAIN_HK 0x14
.................... #define ID_MAIN_HSHK 0x15
.................... #define ID_MAIN_LSHK 0x16
.................... #define ID_MAIN_PIC_LOG 0x1F
.................... #define ID_COM_RSSI_TRX_T_LOG 0x20
.................... #define ID_COM_PIC_LOG 0x2F
.................... #define ID_APRS_PIC_DATA_TABLE 0x60
.................... #define ID_APRS_APRS 0x61
.................... #define ID_APRS_IN_VEHICLE_COMMUNICATION_MISSION 0x62
.................... #define ID_APRS_TLE_DATA 0x63
.................... #define ID_APRS_ECOSYSTEM 0x67
.................... #define ID_APRS_PIC_LOG 0x6F
.................... #define ID_CAM_CHIBANY_THUMBNAIL_IMAGE_DATA_SIZE 0x70
.................... #define ID_CAM_CHIBANY_IMAGE_DATA_SIZE 0x71
.................... #define ID_CAM_CHIBANY_VIDEO_SIZE 0x72
.................... #define ID_CAM_POLLEN_THUMBNAIL_IMAGE_DATA_SIZE 0x73
.................... #define ID_CAM_POLEN_IMAGE_DATA_SIZE 0x74
.................... #define ID_CAM_POLLEN_VIDEO_DATA_SIZE 0x75
.................... #define ID_CAM_MCU_LOG_DATA_SIZE 0x7F
.................... #define ID_CHO_GREECE_THUMBNAIL_IMAGE_DATA_SIZE 0x80
.................... #define ID_CHO_GREECE_IMAGE_DATA_SIZE 0x81
.................... #define ID_CHO_SENSOR_DATA_SIZE 0x82
.................... #define ID_CHO_MCU_LOG_DATA_SIZE 0x8F
.................... #define ID_SATO_PIC_DATA_TABLE 0x90
.................... #define ID_SATO_CYCLE_MODE_DATA 0x91
.................... #define ID_SATO_RANDOM_MODE_DATA 0x92
.................... #define ID_SATO_MULTIPLE_POINT_MODE_DATA 0x93
.................... #define ID_SATO_VOLTAGE_SWEEP_MODE_DATA 0x94
.................... #define ID_SATO_PIC_LOG 0x9F
.................... #define ID_BHU_FOREST_THUMBNAIL_IMAGE_DATA_SIZE 0xB0
.................... #define ID_BHU_FOREST_IMAGE_DATA_SIZE 0xB1
.................... #define ID_BHU_SENSOR_DATA_DATA_SIZE 0xB2
.................... #define ID_BHU_MCU_LOG_DATA_SIZE 0xBF
.................... #define ID_CIGS_DATA_TABLE 0xC0
.................... #define ID_CIGS_MEASURE_DATA 0xC1
.................... #define ID_CIGS_PICLOG 0xCF
.................... 
.................... // ===== Memory Address Mappings from メモリマップ  =====
.................... #define MAIN_ADDRESS_AREA_START_ADDRESS 0x00000000
.................... #define MAIN_ADDRESS_AREA_END_ADDRESS 0x00000FFF
.................... #define MAIN_ADDRESS_START_ADDRESS 0x00001000
.................... #define MAIN_ADDRESS_END_ADDRESS 0x00001FFF
.................... #define MAIN_RESERVED_COMMAND_START_ADDRESS 0x00002000
.................... #define MAIN_RESERVED_COMMAND_END_ADDRESS 0x00003FFF
.................... #define MAIN_HK_START_ADDRESS 0x00004000
.................... #define MAIN_HK_END_ADDRESS 0x02003FFF
.................... #define MAIN_HSHK_START_ADDRESS 0x02004000
.................... #define MAIN_HSHK_END_ADDRESS 0x02103FFF
.................... #define MAIN_LSHK_START_ADDRESS 0x02104000
.................... #define MAIN_LSHK_END_ADDRESS 0x02303FFF
.................... #define MAIN_PIC_LOG_START_ADDRESS 0x02304000
.................... #define MAIN_PIC_LOG_END_ADDRESS 0x0240FFFF
.................... #define COM_RSSI_TRX_T_LOG_START_ADDRESS 0x02800000
.................... #define COM_RSSI_TRX_T_LOG_END_ADDRESS 0x028FFFFF
.................... #define COM_PIC_LOG_START_ADDRESS 0x02900000
.................... #define COM_PIC_LOG_END_ADDRESS 0x029FFFFF
.................... #define APRS_PIC_DATA_TABLE_START_ADDRESS 0x02C00000
.................... #define APRS_PIC_DATA_TABLE_END_ADDRESS 0x02C00FFF
.................... #define APRS_APRS_START_ADDRESS 0x02C01000
.................... #define APRS_APRS_END_ADDRESS 0x02D00FFF
.................... #define APRS_IN_VEHICLE_COMMUNICATION_MISSION_START_ADDRESS 0x02D01000
.................... #define APRS_IN_VEHICLE_COMMUNICATION_MISSION_END_ADDRESS 0x02D01FFF
.................... #define APRS_TLE_DATA_START_ADDRESS 0x02D02000
.................... #define APRS_TLE_DATA_END_ADDRESS 0x02D02FFF
.................... #define APRS_ECOSYSTEM_START_ADDRESS 0x02D03000
.................... #define APRS_ECOSYSTEM_END_ADDRESS 0x02E02FFF
.................... #define APRS_PIC_LOG_START_ADDRESS 0x02E03000
.................... #define APRS_PIC_LOG_END_ADDRESS 0x02E03FFF
.................... #define CAM_CHIBANY_THUMBNAIL_IMAGE_DATA_SIZE_START_ADDRESS 0x02F10000
.................... #define CAM_CHIBANY_THUMBNAIL_IMAGE_DATA_SIZE_END_ADDRESS 0x02F10FFF
.................... #define CAM_CHIBANY_IMAGE_DATA_SIZE_START_ADDRESS 0x03311000
.................... #define CAM_CHIBANY_IMAGE_DATA_SIZE_END_ADDRESS 0x03311FFF
.................... #define CAM_CHIBANY_VIDEO_SIZE_START_ADDRESS 0x03712000
.................... #define CAM_CHIBANY_VIDEO_SIZE_END_ADDRESS 0x03712FFF
.................... #define CAM_POLLEN_THUMBNAIL_IMAGE_DATA_SIZE_START_ADDRESS 0x03B13000
.................... #define CAM_POLLEN_THUMBNAIL_IMAGE_DATA_SIZE_END_ADDRESS 0x03B13FFF
.................... #define CAM_POLEN_IMAGE_DATA_SIZE_START_ADDRESS 0x03F14000
.................... #define CAM_POLEN_IMAGE_DATA_SIZE_END_ADDRESS 0x03F14FFF
.................... #define CAM_POLLEN_VIDEO_DATA_SIZE_START_ADDRESS 0x04315000
.................... #define CAM_POLLEN_VIDEO_DATA_SIZE_END_ADDRESS 0x04315FFF
.................... #define CAM_MCU_LOG_DATA_SIZE_START_ADDRESS 0x04320000
.................... #define CAM_MCU_LOG_DATA_SIZE_END_ADDRESS 0x04320FFF
.................... #define CHO_GREECE_THUMBNAIL_IMAGE_DATA_SIZE_START_ADDRESS 0x04440000
.................... #define CHO_GREECE_THUMBNAIL_IMAGE_DATA_SIZE_END_ADDRESS 0x04440FFF
.................... #define CHO_GREECE_IMAGE_DATA_SIZE_START_ADDRESS 0x04451000
.................... #define CHO_GREECE_IMAGE_DATA_SIZE_END_ADDRESS 0x04451FFF
.................... #define CHO_SENSOR_DATA_SIZE_START_ADDRESS 0x04852000
.................... #define CHO_SENSOR_DATA_SIZE_END_ADDRESS 0x04852FFF
.................... #define CHO_MCU_LOG_DATA_SIZE_START_ADDRESS 0x04863000
.................... #define CHO_MCU_LOG_DATA_SIZE_END_ADDRESS 0x04863FFF
.................... #define SATO_PIC_DATA_TABLE_START_ADDRESS 0x04980000
.................... #define SATO_PIC_DATA_TABLE_END_ADDRESS 0x04980FFF
.................... #define SATO_CYCLE_MODE_DATA_START_ADDRESS 0x04981000
.................... #define SATO_CYCLE_MODE_DATA_END_ADDRESS 0x04A80FFF
.................... #define SATO_RANDOM_MODE_DATA_START_ADDRESS 0x04A81000
.................... #define SATO_RANDOM_MODE_DATA_END_ADDRESS 0x04E80FFF
.................... #define SATO_MULTIPLE_POINT_MODE_DATA_START_ADDRESS 0x04E81000
.................... #define SATO_MULTIPLE_POINT_MODE_DATA_END_ADDRESS 0x04F80FFF
.................... #define SATO_VOLTAGE_SWEEP_MODE_DATA_START_ADDRESS 0x04F81000
.................... #define SATO_VOLTAGE_SWEEP_MODE_DATA_END_ADDRESS 0x05080FFF
.................... #define SATO_PIC_LOG_START_ADDRESS 0x05081000
.................... #define SATO_PIC_LOG_END_ADDRESS 0x05081FFF
.................... #define BHU_FOREST_THUMBNAIL_IMAGE_DATA_SIZE_START_ADDRESS 0x05190000
.................... #define BHU_FOREST_THUMBNAIL_IMAGE_DATA_SIZE_END_ADDRESS 0x05190FFF
.................... #define BHU_FOREST_IMAGE_DATA_SIZE_START_ADDRESS 0x05591000
.................... #define BHU_FOREST_IMAGE_DATA_SIZE_END_ADDRESS 0x05591FFF
.................... #define BHU_SENSOR_DATA_DATA_SIZE_START_ADDRESS 0x05992000
.................... #define BHU_SENSOR_DATA_DATA_SIZE_END_ADDRESS 0x05992FFF
.................... #define BHU_MCU_LOG_DATA_SIZE_START_ADDRESS 0x06993000
.................... #define BHU_MCU_LOG_DATA_SIZE_END_ADDRESS 0x06993FFF
.................... #define CIGS_DATA_TABLE_START_ADDRESS 0x06AA0000
.................... #define CIGS_DATA_TABLE_END_ADDRESS 0x06AA0FFF
.................... #define CIGS_PICLOG_START_ADDRESS 0x06AA1000
.................... #define CIGS_PICLOG_END_ADDRESS 0x06AA1FFF
.................... #define CIGS_ENVIRO_START_ADDRESS 0x06AA2000
.................... #define CIGS_ENVIRO_END_ADDRESS 0x06AA2FFF
.................... #define CIGS_IV1_HEADER_START_ADDRESS 0x06B42000
.................... #define CIGS_IV1_HEADER_END_ADDRESS 0x06BE1FFF
.................... #define CIGS_IV1_DATA_START_ADDRESS 0x06BE2000
.................... #define CIGS_IV1_DATA_END_ADDRESS 0x06FE2FFF
.................... #define CIGS_IV2_HEADER_START_ADDRESS 0x06FE3000
.................... #define CIGS_IV2_HEADER_END_ADDRESS 0x07082FFF
.................... #define CIGS_IV2_DATA_START_ADDRESS 0x07083000
.................... #define CIGS_IV2_DATA_END_ADDRESS 0x07483FFF
.................... 
.................... #endif // SMF_MEMORY_MAP_H
.................... 
.................... 
.................... // レベル4: デバイスドライバヘッダー
.................... #include "../../lib/device/mt25q.h"
.................... #ifndef MT25Q_H
.................... #define MT25Q_H
.................... 
.................... // =========
.................... //#define MT25Q_DEBUG
.................... // =========
.................... 
.................... 
.................... #define FLASH_STREAM0 MIS_FM_STREAM     // <- Align the names to `config.h` Stream name
.................... #define FLASH_STREAM1 SMF_STREAM
.................... #define FLASH_STREAM2 SMF_STREAM // dont use
.................... #define FLASH_STREAM3 SMF_STREAM // dont use
.................... 
.................... typedef enum spi_stream{
....................     SPI_0,
....................     SPI_1,
....................     SPI_2,
....................     SPI_3,
.................... }SpiStreamId;
.................... 
.................... #define MT25QL128ABA 0x00     //Mission Flash
.................... #define MT25QL01GBBB 0x01     //SMF,CF
.................... typedef struct select_stream_to_flash{
....................     SpiStreamId spi_stream_id;
....................     unsigned int8 flash_model;
....................     int16 cs_pin;
.................... }Flash;
.................... 
.................... 
.................... Flash mis_fm = {SPI_0, MT25QL128ABA, MIS_FM_CS};
.................... Flash smf = {SPI_1, MT25QL01GBBB, SMF_CS};
.................... 
.................... 
.................... 
.................... // ===================== Function List =====================
.................... // Public Functions
.................... 
.................... int1 is_connect(Flash flash_stream);
.................... 
.................... void write_data_bytes(Flash flash_stream, unsigned int32 write_start_address, int8 *write_data, unsigned int16 write_amount);      
.................... 
.................... void read_data_bytes(Flash flash_stream, unsigned int32 read_start_address, int8 *read_data, unsigned int32 read_amount);  
.................... 
.................... void sector_erase(Flash flash_stream, unsigned int32 sector_address);
.................... 
.................... void subsector_32kByte_erase(Flash flash_stream, unsigned int32 subsector_address);  
....................                                
.................... void subsector_4kByte_erase(Flash flash_stream, unsigned int32 subsector_address);      
.................... 
.................... //Private Functions
....................  
.................... void flash_setting(Flash flash_stream);
....................  
.................... int8 status_register(Flash flash_stream);
....................  
.................... int8 read_id(Flash flash_stream);
....................  
.................... int8 read_data_byte(Flash flash_stream, unsigned int32 read_address);                                               
....................  
.................... void write_data_byte(Flash flash_stream, unsigned int32 write_address,int8 write_data);                             
....................         //
.................... 
.................... 
.................... // ===================== Flash Commands =====================
.................... #define CMD_READ_ID                     0x9F
.................... #define CMD_READ_STATUS_REGISTER        0x05
.................... #define CMD_READ                        0x03//for MT25QL128ABA
.................... #define CMD_4BYTE_READ                  0x13//for MT25QL01GBBB
.................... #define CMD_WRITE_ENABLE                0x06
.................... #define CMD_PAGE_PROGRAM                0x02//for MT25QL128ABA
.................... #define CMD_4BYTE_PAGE_PROGRAM          0x12//for MT25QL01GBBB
.................... #define CMD_SUBSECTOR_4KB_ERASE         0x20//for MT25QL128ABA
.................... #define CMD_4BYTE_SUBSECTOR_4KB_ERASE   0x21//for MT25QL01GBBB
.................... #define CMD_SUBSECTOR_32KB_ERASE        0x52//for MT25QL128ABA
.................... #define CMD_4BYTE_SUBSECTOR_32KB_ERASE  0x5C//for MT25QL01GBBB
.................... #define CMD_SECTOR_ERASE                0xD8//for MT25QL128ABA
.................... #define CMD_4BYTE_SECTOR_ERASE          0xDC//for MT25QL01GBBB
.................... 
.................... // ====================== Value List =====================
.................... #define MANUFACTURER_ID_MICRON 0x20 // Manufacturer ID for Micron flash
.................... #define READ_ID_DATASIZE 20 // 20 bytes for read ID data
.................... 
.................... 
.................... // ====================== Data Structures =====================
.................... typedef union
.................... {
....................     unsigned int8 bytes[READ_ID_DATASIZE]; // 20 bytes for read ID
....................     struct {
....................         unsigned int8 manufacturer_id; // 1 byte
....................         unsigned int8 memory_type;     // 1 byte
....................         unsigned int8 capacity;        // 1 byte
....................         unsigned int8 reserved;       // 1 byte
....................     } fields;
.................... }READ_ID_DATA;
.................... 
.................... 
.................... #endif
.................... 
.................... 
.................... 
.................... // #include "../../lib/device/ad7490.h"
.................... // #include "../../lib/device/mcp4901.h"
.................... 
.................... // レベル5: 通信ライブラリヘッダー
.................... #include "../../lib/communication/communication.h"
.................... #ifndef COMMUNICATION_H
.................... #define COMMUNICATION_H
.................... 
.................... // __________ device IDs ______________
.................... 
.................... #define GS        0x00
.................... #define MAIN_PIC  0x01
.................... #define COM_PIC   0x02
.................... #define RESET_PIC 0x03
.................... #define FAB_PIC   0x04
.................... #define BOSS_PIC  0x05
.................... #define APRS_PIC  0x06
.................... #define CAM_MCU   0x07
.................... #define CHO_MCU   0x08
.................... #define NAKA_PIC  0x09
.................... #define SATO_PIC  0x0A
.................... #define BHU_MCU   0x0B
.................... #define CIGS_PIC  0x0C
.................... 
....................  // <- change to your device name
.................... 
.................... 
.................... 
.................... 
.................... 
.................... 
.................... 
.................... 
.................... 
.................... 
.................... 
.................... 
.................... // ____________ SFD ______________
.................... 
.................... #define SFD 0xAA
.................... 
.................... 
.................... // ____________ typedef _____________
.................... 
.................... typedef struct {
....................     int8 id;
....................     int8 length;
.................... } FrameID;
.................... 
.................... #define CONTENT_MAX 9
.................... typedef struct {
....................     int8 frame_id;
....................     unsigned int8 size;
....................     int1 is_exist;
....................     unsigned int8 content[CONTENT_MAX];
.................... } Command;
.................... 
.................... #include "frame.h"
.................... #ifndef FRAME_CONTENT_H
.................... #define FRAME_CONTENT_H
.................... 
.................... 
.................... // __________ Receives _________
.................... 
.................... #define UPLINK_COMMAND        0x00
.................... #define STATUS_CHECK          0x01
.................... #define IS_SMF_AVAILABLE      0x02
.................... 
.................... #define UPLINK_COMMAND_LENGTH     9
.................... #define STATUS_CHECK_LENGTH       0
.................... #define IS_SMF_AVAILABLE_LENGTH   1
.................... 
.................... volatile FrameID frame_ids[] = {
....................    {UPLINK_COMMAND, UPLINK_COMMAND_LENGTH}, 
....................    {STATUS_CHECK, STATUS_CHECK_LENGTH}, 
....................    {IS_SMF_AVAILABLE, IS_SMF_AVAILABLE_LENGTH}
.................... };
.................... 
.................... 
.................... // __________ Transmits _____________
.................... 
.................... typedef enum {
....................    MIS_MCU_STATUS = 0x03,
....................    ACK = 0x0F
.................... } TransmitFrameId;
.................... 
.................... #endif
.................... 
.................... 
.................... 
.................... // ______ Receive _______
.................... 
.................... Command make_receive_command(unsigned int8 receive_signal[], int8 receive_signal_size);
.................... 
.................... static int8 trim_receive_signal_header(unsigned int8 receive_signal[], int8 receive_signal_size);
.................... 
.................... static int8 get_content_size(unsigned int8 frame_id);
.................... 
.................... static int1 check_crc(unsigned int8 frame[], int8 receive_frame_size);
.................... 
.................... static int1 check_device_id(unsigned int8 device_id);
.................... 
.................... 
.................... // ______ Transmit _______
.................... 
.................... void transmit_command(TransmitFrameId frame_id, unsigned int8 content[], int8 size);
.................... 
.................... static void transmit(unsigned int8 data[], int8 data_size);
.................... 
.................... // ______ Common _________
.................... 
.................... 
.................... #endif
.................... 
.................... 
.................... #include "../../lib/communication/communication_driver.h"
.................... #ifndef COMMUNICATION_DRIVER_H
.................... #define COMMUNICATION_DRIVER_H
.................... 
.................... #include "communication.h"
.................... #ifndef COMMUNICATION_H
.................... #define COMMUNICATION_H
.................... 
.................... // __________ device IDs ______________
.................... 
.................... #define GS        0x00
.................... #define MAIN_PIC  0x01
.................... #define COM_PIC   0x02
.................... #define RESET_PIC 0x03
.................... #define FAB_PIC   0x04
.................... #define BOSS_PIC  0x05
.................... #define APRS_PIC  0x06
.................... #define CAM_MCU   0x07
.................... #define CHO_MCU   0x08
.................... #define NAKA_PIC  0x09
.................... #define SATO_PIC  0x0A
.................... #define BHU_MCU   0x0B
.................... #define CIGS_PIC  0x0C
.................... 
....................  // <- change to your device name
.................... 
.................... 
.................... 
.................... 
.................... 
.................... 
.................... 
.................... 
.................... 
.................... 
.................... 
.................... 
.................... // ____________ SFD ______________
.................... 
.................... #define SFD 0xAA
.................... 
.................... 
.................... // ____________ typedef _____________
.................... 
.................... typedef struct {
....................     int8 id;
....................     int8 length;
.................... } FrameID;
.................... 
.................... #define CONTENT_MAX 9
.................... typedef struct {
....................     int8 frame_id;
....................     unsigned int8 size;
....................     int1 is_exist;
....................     unsigned int8 content[CONTENT_MAX];
.................... } Command;
.................... 
.................... #include "frame.h"
.................... 
.................... // ______ Receive _______
.................... 
.................... Command make_receive_command(unsigned int8 receive_signal[], int8 receive_signal_size);
.................... 
.................... static int8 trim_receive_signal_header(unsigned int8 receive_signal[], int8 receive_signal_size);
.................... 
.................... static int8 get_content_size(unsigned int8 frame_id);
.................... 
.................... static int1 check_crc(unsigned int8 frame[], int8 receive_frame_size);
.................... 
.................... static int1 check_device_id(unsigned int8 device_id);
.................... 
.................... 
.................... // ______ Transmit _______
.................... 
.................... void transmit_command(TransmitFrameId frame_id, unsigned int8 content[], int8 size);
.................... 
.................... static void transmit(unsigned int8 data[], int8 data_size);
.................... 
.................... // ______ Common _________
.................... 
.................... 
.................... #endif
.................... 
.................... 
.................... 
.................... 
.................... // This is redundant, but it is a process to hide the Communication library as a driver.
.................... Command make_command(unsigned int8 receive_signal[], int8 receive_signal_size);
.................... 
.................... void transmit_ack(void);
.................... void transmit_status(void);
.................... 
.................... 
.................... 
.................... #endif
.................... 
.................... 
.................... #include "../../lib/communication/mission_tools.h"
.................... #ifndef MISSION_TOOLS_H
.................... #define MISSION_TOOLS_H
.................... 
.................... #include "communication_driver.h"
.................... #ifndef COMMUNICATION_DRIVER_H
.................... #define COMMUNICATION_DRIVER_H
.................... 
.................... #include "communication.h"
.................... 
.................... 
.................... // This is redundant, but it is a process to hide the Communication library as a driver.
.................... Command make_command(unsigned int8 receive_signal[], int8 receive_signal_size);
.................... 
.................... void transmit_ack(void);
.................... void transmit_status(void);
.................... 
.................... 
.................... 
.................... #endif
.................... 
.................... 
.................... 
.................... 
.................... // ________________ fuctions ____________
.................... 
.................... // Check and reply to messages received from BOSS PIC
.................... void check_and_respond_to_boss();
.................... 
.................... // Request using SMF to BOSS PIC
.................... // !!!After use, you must call `void finished_use_smf()`
.................... int1 req_use_smf();
.................... 
.................... // Call after using SMF
.................... void finished_use_smf();
.................... //unsigned int8 calc_crc8(unsigned int8 frame[], int8 payload_size);
.................... 
.................... 
.................... #endif
.................... 
.................... 
.................... 
.................... // レベル6: コア機能ヘッダー
.................... #include "../core/measurement/son_tmp_strain.h"
.................... #ifndef son_tmp_strain_H
.................... #define son_tmp_strain_H
.................... 
.................... #include <stdint.h>
.................... ///////////////////////////////////////////////////////////////////////////
.................... ////                                                                   ////
.................... ////                           stdint.h                                ////
.................... ////                                                                   ////
.................... //// Standard integer definitions.                                     ////
.................... ////                                                                   ////
.................... ///////////////////////////////////////////////////////////////////////////
.................... ////        (C) Copyright 1996,2008 Custom Computer Services           ////
.................... //// This source code may only be used by licensed users of the CCS C  ////
.................... //// compiler.  This source code may only be distributed to other      ////
.................... //// licensed users of the CCS C compiler.  No other use, reproduction ////
.................... //// or distribution is permitted without written permission.          ////
.................... //// Derivative programs created using this software in object code    ////
.................... //// form are not restricted in any way.                               ////
.................... ///////////////////////////////////////////////////////////////////////////
.................... 
.................... #ifndef _STDINT
.................... 
.................... #define _STDINT
.................... 
.................... //////////// exact width
.................... 
.................... typedef signed int8 int8_t;
.................... typedef unsigned int8 uint8_t;
.................... typedef signed int16 int16_t;
.................... typedef unsigned int16 uint16_t;
.................... typedef signed int32 int32_t;
.................... typedef unsigned int32 uint32_t;
.................... 
.................... #if defined(__PCD__)
.................... //typedef signed int24 int24_t;
.................... //typedef unsigned int24 uint24_t;
.................... typedef signed int64 int64_t;
.................... typedef unsigned int64 uint64_t;
.................... #endif
.................... 
.................... #define INT8_MAX  (127)
.................... #define INT8_MIN  (-128)
.................... #define UINT8_MAX (255)
.................... 
.................... #define INT16_MAX  (32767)
.................... #define INT16_MIN  (-32768)
.................... #define UINT16_MAX (65535)
.................... 
.................... #define INT32_MAX  (2147483647)
.................... #define INT32_MIN  (-2147483648)
.................... #define UINT32_MAX (4294967295)
.................... 
.................... #if defined(__PCD__)
.................... //#define INT24_MAX  (8388607)
.................... //#define INT24_MIN  (-8388608)
.................... //#define UINT24_MAX (16777215)
.................... 
.................... #define INT64_MAX  (9223372036854775807)
.................... #define INT64_MIN  (-9223372036854775808)
.................... #define UINT64_MAX (18446744073709551615)
.................... #endif
.................... 
.................... ///////// minimum width
.................... 
.................... typedef signed int8 int_least8_t;
.................... typedef unsigned int8 uint_least8_t;
.................... typedef signed int16 int_least16_t;
.................... typedef unsigned int16 uint_least16_t;
.................... typedef signed int32 int_least32_t;
.................... typedef unsigned int32 uint_least32_t;
.................... 
.................... #if defined(__PCD__)
.................... //typedef signed int24 int_least24_t;
.................... //typedef unsigned int24 uint_least24_t;
.................... typedef signed int64 int_least64_t;
.................... typedef unsigned int64 uint_least64_t;
.................... #endif
.................... 
.................... #define INT_LEAST8_MAX  (127)
.................... #define INT_LEAST8_MIN  (-128)
.................... #define UINT_LEAST8_MAX (255)
.................... 
.................... #define INT_LEAST16_MAX  (32767)
.................... #define INT_LEAST16_MIN  (-32768)
.................... #define UINT_LEAST16_MAX (65535)
.................... 
.................... #define INT_LEAST32_MAX  (2147483647)
.................... #define INT_LEAST32_MIN  (-2147483648)
.................... #define UINT_LEAST32_MAX (4294967295)
.................... 
.................... #if defined(__PCD__)
.................... //#define INT_LEAST24_MAX  (8388607)
.................... //#define INT_LEAST24_MIN  (-8388608)
.................... //#define UINT_LEAST24_MAX (16777215)
.................... 
.................... #define INT_LEAST64_MAX  (9223372036854775807)
.................... #define INT_LEAST64_MIN  (-9223372036854775808)
.................... #define UINT_LEAST64_MAX (18446744073709551615)
.................... #endif
.................... 
.................... ///////// fastest width
.................... 
.................... #if defined(__PCD__)
.................... typedef signed int16 int_fast8_t;
.................... typedef unsigned int16 uint_fast8_t;
.................... #define INT_FAST8_MAX  (32767)
.................... #define INT_FAST8_MIN  (-32768)
.................... #define UINT_FAST8_MAX (65535)
.................... typedef signed int16 int_fast16_t;
.................... typedef unsigned int16 uint_fast16_t;
.................... //typedef signed int24 int_fast24_t;
.................... //typedef unsigned int24 uint_fast24_t;
.................... typedef signed int64 int_fast64_t;
.................... typedef unsigned int64 uint_fast64_t;
.................... #else
.................... typedef signed int8 int_fast8_t;
.................... typedef unsigned int8 uint_fast8_t;
.................... #define INT_FAST8_MAX  (127)
.................... #define INT_FAST8_MIN  (-128)
.................... #define UINT_FAST8_MAX (255)
.................... typedef signed int16 int_fast16_t;
.................... typedef unsigned int16 uint_fast16_t;
.................... #endif
.................... 
.................... typedef signed int32 int_fast32_t;
.................... typedef unsigned int32 uint_fast32_t;
.................... 
.................... #define INT_FAST16_MAX  (32767)
.................... #define INT_FAST16_MIN  (-32768)
.................... #define UINT_FAST16_MAX (65535)
.................... 
.................... #define INT_FAST32_MAX  (2147483647)
.................... #define INT_FAST32_MIN  (-2147483648)
.................... #define UINT_FAST32_MAX (4294967295)
.................... 
.................... #if defined(__PCD__)
.................... //#define INT_FAST24_MAX  (8388607)
.................... //#define INT_FAST24_MIN  (-8388608)
.................... //#define UINT_FAST24_MAX (16777215)
.................... 
.................... #define INT_FAST64_MAX  (9223372036854775807)
.................... #define INT_FAST64_MIN  (-9223372036854775808)
.................... #define UINT_FAST64_MAX (18446744073709551615)
.................... #endif
.................... 
.................... //////////// big enough to hold pointers (OPTIONAL)
.................... 
.................... #if defined(__PCD__)
....................    typedef unsigned int32 uintptr_t;
....................    typedef signed int32 intptr_t;
.................... #else
....................    typedef unsigned int16 uintptr_t;
....................    typedef signed int16 intptr_t;
.................... #endif
.................... 
.................... #define INT8_C(val) ((int8_t)val)
.................... #define UINT8_C(val) ((uint8_t)val)
.................... #define INT16_C(val) ((int16_t)val)
.................... #define UINT16_C(val) ((uint16_t)val)
.................... #define INT32_C(val) ((int32_t)val)
.................... #define UINT32_C(val) ((uint32_t)val)
.................... 
.................... #if defined(__PCD__)
.................... #define INT64_C(val) ((int64_t)val)
.................... #define UINT64_C(val) ((uint64_t)val)
.................... #endif
.................... 
.................... /// TODO:
.................... /// INTPTRN_MIN INTPTRN_MAX UINTPTRN_MAX
.................... 
.................... 
.................... /////////// greatest width (OPTIONAL)
.................... 
.................... #ifdef __PCD__
....................    typedef signed int64 intmax_t;
....................    typedef unsigned int64 uintmax_t;
....................    
....................    #define INTMAXN_MAX  (9223372036854775807)
....................    #define INTMAXN_MIN  (-9223372036854775808)
....................    #define UINTMAXN_MAX (18446744073709551615)
....................    
....................    #define INTMAX_C(value) ((signed int64)val)
....................    #define UINTMAX_C(value) ((unsigned int64)val)
.................... #else
....................    typedef signed int32 intmax_t;
....................    typedef unsigned int32 uintmax_t;
....................    
....................    #define INTMAXN_MAX  (2147483647)
....................    #define INTMAXN_MIN  (-2147483648)
....................    #define UINTMAXN_MAX (4294967295)
....................    
....................    #define INTMAX_C(value) ((signed int32)val)
....................    #define UINTMAX_C(value) ((unsigned int32)val)
.................... #endif
.................... 
.................... 
.................... #endif
.................... 
.................... 
.................... #include <stdbool.h>
.................... ///////////////////////////////////////////////////////////////////////////
.................... ////                                                                   ////
.................... ////                          stdbool.h                                ////
.................... ////                                                                   ////
.................... //// Standard boolean definitions                                      ////
.................... ////                                                                   ////
.................... ///////////////////////////////////////////////////////////////////////////
.................... ////        (C) Copyright 1996,2012 Custom Computer Services           ////
.................... //// This source code may only be used by licensed users of the CCS C  ////
.................... //// compiler.  This source code may only be distributed to other      ////
.................... //// licensed users of the CCS C compiler.  No other use, reproduction ////
.................... //// or distribution is permitted without written permission.          ////
.................... //// Derivative programs created using this software in object code    ////
.................... //// form are not restricted in any way.                               ////
.................... ///////////////////////////////////////////////////////////////////////////
.................... 
.................... #ifndef __STDBOOL_H__
.................... #define __STDBOOL_H__
.................... 
.................... #if !getenv("CASE")
....................    // remove TRUE and FALSE added by CCS's device .h file, only if
....................    // compiler has case sensitivty off.
.................... 
....................    #if defined(TRUE)
....................       #undef TRUE
....................    #endif
....................    
....................    #if defined(FALSE)
....................       #undef FALSE
....................    #endif
.................... #endif
.................... 
.................... typedef int1   bool;
.................... #define true   1
.................... #define false  0
.................... #define __bool_true_false_are_defined  1
.................... 
.................... #endif
.................... 
.................... #include "../../system/son_tmp_config.h"
.................... #ifndef son_tmp_CONFIG_H
.................... #define son_tmp_CONFIG_H
.................... 
.................... #define SELF_DEVICE_ID CIGS_PIC
.................... 
.................... #include <18F67J94.h>
.................... #opt 0 // 0 = no optimization
.................... 
.................... #use delay(crystal=16MHz)
.................... #fuses HS, NOWDT, NOBROWNOUT, NOPROTECT
.................... 
.................... #define PIC18
.................... 
.................... #ifdef PIC18
....................     // ==========================================
....................     // 1. ハードウェア構成とピンアサイン
....................     // ==========================================
.................... 
....................     #define PIN_LDO_EN          PIN_E1
....................     #define PIN_VREF_EN         PIN_E0
....................     #define PIN_LED1            PIN_A5
....................     #define PIN_LED2            PIN_A1
.................... 
....................     #define PIN_SW_DIO1         PIN_C1
....................     #define PIN_SW_DIO0         PIN_C2
.................... 
....................     // SPI Chip Select (BOSSヘッダ名称に適合)
....................     #define MIS_FM_CS           PIN_B1
....................     #define SMF_CS              PIN_D4
....................     #define PIN_CS_ADC          PIN_B3
.................... 
.................... // ------------------------------------------
....................     // UART 通信設定
....................     // ------------------------------------------
....................     #use rs232(baud=9600, parity=N, xmit=PIN_G0, bits=8, stream=PC, FORCE_SW, ERRORS)
.................... 
....................     // BOSS側: D1/D0ピンにハードウェアUART3を割り当てて使用する
....................     #pin_select TX3=PIN_D1
....................     #pin_select RX3=PIN_D0
....................     #use rs232(baud=9600, parity=N, UART3, bits=8, stream=BOSS, ERRORS)
.................... 
....................     // ------------------------------------------
....................     // SPI 通信設定
....................     // ------------------------------------------
....................     #use spi(MASTER, BAUD=1000000, MODE=0, BITS=8, DI=PIN_B5, DO=PIN_B4, CLK=PIN_B2, stream=MIS_FM_STREAM, FORCE_SW)
....................     #use spi(MASTER, BAUD=1000000, MODE=0, BITS=8, DI=PIN_D6, DO=PIN_D7, CLK=PIN_D5, stream=SMF_STREAM, FORCE_SW)
.................... 
.................... #endif
.................... 
.................... // ==========================================
.................... // 2. システムシーケンス コマンド定義
.................... // ==========================================
.................... #define CMD_MISSION_START       0x10
.................... #define RES_MISSION_DONE        0x11
.................... #define CMD_SMF_PREPARE         0x20
.................... #define REQ_SMF_COPY            0x21
.................... #define CMD_SMF_PERMIT          0x22
.................... #define REQ_POWER_OFF           0x30
.................... 
.................... // ==========================================
.................... // 3. データフォーマット・バッファ定義
.................... // ==========================================
.................... #define PACKET_SIZE             64
.................... #define FLASH_PAGE_SIZE         256
.................... #define PACKETS_PER_PAGE        4
.................... #define SMF_TRANSFER_PACKETS    15
.................... 
.................... // ヘッダー構造体 (8Byte)
.................... typedef struct
.................... {
....................     unsigned int32 timestamp;      // 4 Byte
....................     unsigned int8  mode : 3;       // 3 bit
....................     unsigned int8  channel : 1;    // 1 bit
....................     unsigned int8  samplingRate : 4; // 4 bit
....................     unsigned int16 dataCount;      // 12bitではなく16bit(2Byte)で確保しエラーを回避
....................     unsigned int8  zeroFill;       // 1 Byte (合計8Byteにするため)
.................... } PacketHeader;
.................... 
.................... typedef struct
.................... {
....................     PacketHeader header;           // 8 Byte
....................     unsigned int8 packetNum;       // 1 Byte
....................     unsigned int16 adcData[27];    // 54 Byte
....................     unsigned int8 crc8;            // 1 Byte
.................... } FirstPacket;
.................... 
.................... typedef struct
.................... {
....................     unsigned int8 packetNum;       // 1 Byte
....................     unsigned int16 adcData[31];    // 62 Byte
....................     unsigned int8 crc8;            // 1 Byte
.................... } SubsequentPacket;
.................... 
.................... typedef union
.................... {
....................     unsigned int8 raw[PACKET_SIZE];
....................     FirstPacket first;
....................     SubsequentPacket sub;
.................... } PacketBuffer;
.................... 
.................... #endif // son_tmp_CONFIG_H
.................... 
.................... 
.................... // ============================================================================
.................... // 外部公開関数プロトタイプ
.................... // ============================================================================
.................... 
.................... // ペリフェラルの初期化 (ピンの出力設定など)
.................... void io_init(void);
.................... 
.................... // アナログスイッチの切り替え (0〜3チャンネル)
.................... void switch_channel(uint8_t ch);
.................... 
.................... // LTC2452から16bitのADC値を読み取る
.................... uint16_t read_adc_ltc2452(void);
.................... 
.................... // 計測シーケンスの実行とFlashへの保存 (IVデータ ＋ 温度データを連続実行)
.................... // mode: 動作モード
.................... // channel: 測定チャンネル (MAX4734EUB+ の選択)
.................... // samplingRate: サンプリングレート設定値
.................... void execute_measurement(uint8_t mode, uint8_t channel, uint8_t samplingRate);
.................... 
.................... #endif // son_tmp_strain_H
.................... 
.................... #include "../core/measurement/son_tmp_temp.h"
.................... #ifndef son_tmp_TEMP_H
.................... #define son_tmp_TEMP_H
.................... 
.................... #include <stdint.h>
.................... ///////////////////////////////////////////////////////////////////////////
.................... ////                                                                   ////
.................... ////                           stdint.h                                ////
.................... ////                                                                   ////
.................... //// Standard integer definitions.                                     ////
.................... ////                                                                   ////
.................... ///////////////////////////////////////////////////////////////////////////
.................... ////        (C) Copyright 1996,2008 Custom Computer Services           ////
.................... //// This source code may only be used by licensed users of the CCS C  ////
.................... //// compiler.  This source code may only be distributed to other      ////
.................... //// licensed users of the CCS C compiler.  No other use, reproduction ////
.................... //// or distribution is permitted without written permission.          ////
.................... //// Derivative programs created using this software in object code    ////
.................... //// form are not restricted in any way.                               ////
.................... ///////////////////////////////////////////////////////////////////////////
.................... 
.................... #ifndef _STDINT
.................... 
.................... #define _STDINT
.................... 
.................... //////////// exact width
.................... 
.................... typedef signed int8 int8_t;
.................... typedef unsigned int8 uint8_t;
.................... typedef signed int16 int16_t;
.................... typedef unsigned int16 uint16_t;
.................... typedef signed int32 int32_t;
.................... typedef unsigned int32 uint32_t;
.................... 
.................... #if defined(__PCD__)
.................... //typedef signed int24 int24_t;
.................... //typedef unsigned int24 uint24_t;
.................... typedef signed int64 int64_t;
.................... typedef unsigned int64 uint64_t;
.................... #endif
.................... 
.................... #define INT8_MAX  (127)
.................... #define INT8_MIN  (-128)
.................... #define UINT8_MAX (255)
.................... 
.................... #define INT16_MAX  (32767)
.................... #define INT16_MIN  (-32768)
.................... #define UINT16_MAX (65535)
.................... 
.................... #define INT32_MAX  (2147483647)
.................... #define INT32_MIN  (-2147483648)
.................... #define UINT32_MAX (4294967295)
.................... 
.................... #if defined(__PCD__)
.................... //#define INT24_MAX  (8388607)
.................... //#define INT24_MIN  (-8388608)
.................... //#define UINT24_MAX (16777215)
.................... 
.................... #define INT64_MAX  (9223372036854775807)
.................... #define INT64_MIN  (-9223372036854775808)
.................... #define UINT64_MAX (18446744073709551615)
.................... #endif
.................... 
.................... ///////// minimum width
.................... 
.................... typedef signed int8 int_least8_t;
.................... typedef unsigned int8 uint_least8_t;
.................... typedef signed int16 int_least16_t;
.................... typedef unsigned int16 uint_least16_t;
.................... typedef signed int32 int_least32_t;
.................... typedef unsigned int32 uint_least32_t;
.................... 
.................... #if defined(__PCD__)
.................... //typedef signed int24 int_least24_t;
.................... //typedef unsigned int24 uint_least24_t;
.................... typedef signed int64 int_least64_t;
.................... typedef unsigned int64 uint_least64_t;
.................... #endif
.................... 
.................... #define INT_LEAST8_MAX  (127)
.................... #define INT_LEAST8_MIN  (-128)
.................... #define UINT_LEAST8_MAX (255)
.................... 
.................... #define INT_LEAST16_MAX  (32767)
.................... #define INT_LEAST16_MIN  (-32768)
.................... #define UINT_LEAST16_MAX (65535)
.................... 
.................... #define INT_LEAST32_MAX  (2147483647)
.................... #define INT_LEAST32_MIN  (-2147483648)
.................... #define UINT_LEAST32_MAX (4294967295)
.................... 
.................... #if defined(__PCD__)
.................... //#define INT_LEAST24_MAX  (8388607)
.................... //#define INT_LEAST24_MIN  (-8388608)
.................... //#define UINT_LEAST24_MAX (16777215)
.................... 
.................... #define INT_LEAST64_MAX  (9223372036854775807)
.................... #define INT_LEAST64_MIN  (-9223372036854775808)
.................... #define UINT_LEAST64_MAX (18446744073709551615)
.................... #endif
.................... 
.................... ///////// fastest width
.................... 
.................... #if defined(__PCD__)
.................... typedef signed int16 int_fast8_t;
.................... typedef unsigned int16 uint_fast8_t;
.................... #define INT_FAST8_MAX  (32767)
.................... #define INT_FAST8_MIN  (-32768)
.................... #define UINT_FAST8_MAX (65535)
.................... typedef signed int16 int_fast16_t;
.................... typedef unsigned int16 uint_fast16_t;
.................... //typedef signed int24 int_fast24_t;
.................... //typedef unsigned int24 uint_fast24_t;
.................... typedef signed int64 int_fast64_t;
.................... typedef unsigned int64 uint_fast64_t;
.................... #else
.................... typedef signed int8 int_fast8_t;
.................... typedef unsigned int8 uint_fast8_t;
.................... #define INT_FAST8_MAX  (127)
.................... #define INT_FAST8_MIN  (-128)
.................... #define UINT_FAST8_MAX (255)
.................... typedef signed int16 int_fast16_t;
.................... typedef unsigned int16 uint_fast16_t;
.................... #endif
.................... 
.................... typedef signed int32 int_fast32_t;
.................... typedef unsigned int32 uint_fast32_t;
.................... 
.................... #define INT_FAST16_MAX  (32767)
.................... #define INT_FAST16_MIN  (-32768)
.................... #define UINT_FAST16_MAX (65535)
.................... 
.................... #define INT_FAST32_MAX  (2147483647)
.................... #define INT_FAST32_MIN  (-2147483648)
.................... #define UINT_FAST32_MAX (4294967295)
.................... 
.................... #if defined(__PCD__)
.................... //#define INT_FAST24_MAX  (8388607)
.................... //#define INT_FAST24_MIN  (-8388608)
.................... //#define UINT_FAST24_MAX (16777215)
.................... 
.................... #define INT_FAST64_MAX  (9223372036854775807)
.................... #define INT_FAST64_MIN  (-9223372036854775808)
.................... #define UINT_FAST64_MAX (18446744073709551615)
.................... #endif
.................... 
.................... //////////// big enough to hold pointers (OPTIONAL)
.................... 
.................... #if defined(__PCD__)
....................    typedef unsigned int32 uintptr_t;
....................    typedef signed int32 intptr_t;
.................... #else
....................    typedef unsigned int16 uintptr_t;
....................    typedef signed int16 intptr_t;
.................... #endif
.................... 
.................... #define INT8_C(val) ((int8_t)val)
.................... #define UINT8_C(val) ((uint8_t)val)
.................... #define INT16_C(val) ((int16_t)val)
.................... #define UINT16_C(val) ((uint16_t)val)
.................... #define INT32_C(val) ((int32_t)val)
.................... #define UINT32_C(val) ((uint32_t)val)
.................... 
.................... #if defined(__PCD__)
.................... #define INT64_C(val) ((int64_t)val)
.................... #define UINT64_C(val) ((uint64_t)val)
.................... #endif
.................... 
.................... /// TODO:
.................... /// INTPTRN_MIN INTPTRN_MAX UINTPTRN_MAX
.................... 
.................... 
.................... /////////// greatest width (OPTIONAL)
.................... 
.................... #ifdef __PCD__
....................    typedef signed int64 intmax_t;
....................    typedef unsigned int64 uintmax_t;
....................    
....................    #define INTMAXN_MAX  (9223372036854775807)
....................    #define INTMAXN_MIN  (-9223372036854775808)
....................    #define UINTMAXN_MAX (18446744073709551615)
....................    
....................    #define INTMAX_C(value) ((signed int64)val)
....................    #define UINTMAX_C(value) ((unsigned int64)val)
.................... #else
....................    typedef signed int32 intmax_t;
....................    typedef unsigned int32 uintmax_t;
....................    
....................    #define INTMAXN_MAX  (2147483647)
....................    #define INTMAXN_MIN  (-2147483648)
....................    #define UINTMAXN_MAX (4294967295)
....................    
....................    #define INTMAX_C(value) ((signed int32)val)
....................    #define UINTMAX_C(value) ((unsigned int32)val)
.................... #endif
.................... 
.................... 
.................... #endif
.................... 
.................... 
.................... #include <stdbool.h>
.................... ///////////////////////////////////////////////////////////////////////////
.................... ////                                                                   ////
.................... ////                          stdbool.h                                ////
.................... ////                                                                   ////
.................... //// Standard boolean definitions                                      ////
.................... ////                                                                   ////
.................... ///////////////////////////////////////////////////////////////////////////
.................... ////        (C) Copyright 1996,2012 Custom Computer Services           ////
.................... //// This source code may only be used by licensed users of the CCS C  ////
.................... //// compiler.  This source code may only be distributed to other      ////
.................... //// licensed users of the CCS C compiler.  No other use, reproduction ////
.................... //// or distribution is permitted without written permission.          ////
.................... //// Derivative programs created using this software in object code    ////
.................... //// form are not restricted in any way.                               ////
.................... ///////////////////////////////////////////////////////////////////////////
.................... 
.................... #ifndef __STDBOOL_H__
.................... #define __STDBOOL_H__
.................... 
.................... #if !getenv("CASE")
....................    // remove TRUE and FALSE added by CCS's device .h file, only if
....................    // compiler has case sensitivty off.
.................... 
....................    #if defined(TRUE)
....................       #undef TRUE
....................    #endif
....................    
....................    #if defined(FALSE)
....................       #undef FALSE
....................    #endif
.................... #endif
.................... 
.................... typedef int1   bool;
.................... #define true   1
.................... #define false  0
.................... #define __bool_true_false_are_defined  1
.................... 
.................... #endif
.................... 
.................... #include "../../system/son_tmp_config.h"
.................... #ifndef son_tmp_CONFIG_H
.................... #define son_tmp_CONFIG_H
.................... 
.................... #define SELF_DEVICE_ID CIGS_PIC
.................... 
.................... #include <18F67J94.h>
.................... #opt 0 // 0 = no optimization
.................... 
.................... #use delay(crystal=16MHz)
.................... #fuses HS, NOWDT, NOBROWNOUT, NOPROTECT
.................... 
.................... #define PIC18
.................... 
.................... #ifdef PIC18
....................     // ==========================================
....................     // 1. ハードウェア構成とピンアサイン
....................     // ==========================================
.................... 
....................     #define PIN_LDO_EN          PIN_E1
....................     #define PIN_VREF_EN         PIN_E0
....................     #define PIN_LED1            PIN_A5
....................     #define PIN_LED2            PIN_A1
.................... 
....................     #define PIN_SW_DIO1         PIN_C1
....................     #define PIN_SW_DIO0         PIN_C2
.................... 
....................     // SPI Chip Select (BOSSヘッダ名称に適合)
....................     #define MIS_FM_CS           PIN_B1
....................     #define SMF_CS              PIN_D4
....................     #define PIN_CS_ADC          PIN_B3
.................... 
.................... // ------------------------------------------
....................     // UART 通信設定
....................     // ------------------------------------------
....................     #use rs232(baud=9600, parity=N, xmit=PIN_G0, bits=8, stream=PC, FORCE_SW, ERRORS)
.................... 
....................     // BOSS側: D1/D0ピンにハードウェアUART3を割り当てて使用する
....................     #pin_select TX3=PIN_D1
....................     #pin_select RX3=PIN_D0
....................     #use rs232(baud=9600, parity=N, UART3, bits=8, stream=BOSS, ERRORS)
.................... 
....................     // ------------------------------------------
....................     // SPI 通信設定
....................     // ------------------------------------------
....................     #use spi(MASTER, BAUD=1000000, MODE=0, BITS=8, DI=PIN_B5, DO=PIN_B4, CLK=PIN_B2, stream=MIS_FM_STREAM, FORCE_SW)
....................     #use spi(MASTER, BAUD=1000000, MODE=0, BITS=8, DI=PIN_D6, DO=PIN_D7, CLK=PIN_D5, stream=SMF_STREAM, FORCE_SW)
.................... 
.................... #endif
.................... 
.................... // ==========================================
.................... // 2. システムシーケンス コマンド定義
.................... // ==========================================
.................... #define CMD_MISSION_START       0x10
.................... #define RES_MISSION_DONE        0x11
.................... #define CMD_SMF_PREPARE         0x20
.................... #define REQ_SMF_COPY            0x21
.................... #define CMD_SMF_PERMIT          0x22
.................... #define REQ_POWER_OFF           0x30
.................... 
.................... // ==========================================
.................... // 3. データフォーマット・バッファ定義
.................... // ==========================================
.................... #define PACKET_SIZE             64
.................... #define FLASH_PAGE_SIZE         256
.................... #define PACKETS_PER_PAGE        4
.................... #define SMF_TRANSFER_PACKETS    15
.................... 
.................... // ヘッダー構造体 (8Byte)
.................... typedef struct
.................... {
....................     unsigned int32 timestamp;      // 4 Byte
....................     unsigned int8  mode : 3;       // 3 bit
....................     unsigned int8  channel : 1;    // 1 bit
....................     unsigned int8  samplingRate : 4; // 4 bit
....................     unsigned int16 dataCount;      // 12bitではなく16bit(2Byte)で確保しエラーを回避
....................     unsigned int8  zeroFill;       // 1 Byte (合計8Byteにするため)
.................... } PacketHeader;
.................... 
.................... typedef struct
.................... {
....................     PacketHeader header;           // 8 Byte
....................     unsigned int8 packetNum;       // 1 Byte
....................     unsigned int16 adcData[27];    // 54 Byte
....................     unsigned int8 crc8;            // 1 Byte
.................... } FirstPacket;
.................... 
.................... typedef struct
.................... {
....................     unsigned int8 packetNum;       // 1 Byte
....................     unsigned int16 adcData[31];    // 62 Byte
....................     unsigned int8 crc8;            // 1 Byte
.................... } SubsequentPacket;
.................... 
.................... typedef union
.................... {
....................     unsigned int8 raw[PACKET_SIZE];
....................     FirstPacket first;
....................     SubsequentPacket sub;
.................... } PacketBuffer;
.................... 
.................... #endif // son_tmp_CONFIG_H
.................... 
.................... 
.................... // ============================================================================
.................... // 温度データ用パケット構造体 (64Byte)
.................... // ============================================================================
.................... typedef struct
.................... {
....................     uint8_t packetNum;       // パケット番号 (1 Byte)
....................     uint8_t tempData[62];    // 温度データ本体 (62 Byte = 12bit x 41データ)
....................     uint8_t crc8;            // CRC-8 (1 Byte)
.................... } TempPacket;
.................... 
.................... // メモリバッファ用共用体
.................... typedef union
.................... {
....................     uint8_t raw[PACKET_SIZE];
....................     TempPacket temp;
.................... } TempPacketBuffer;
.................... 
.................... // ============================================================================
.................... // 外部公開関数プロトタイプ
.................... // ============================================================================
.................... 
.................... // 内蔵ADCの初期化
.................... void temp_io_init(void);
.................... 
.................... // 内蔵ADCから温度センサーの値を読み取る (12bit)
.................... uint16_t read_adc_internal(void);
.................... 
.................... // 温度計測シーケンスの実行とFlashへの保存
.................... // startPacketNum: 開始パケット番号 (19)
.................... // packetCount: 実行するパケット数 (14)
.................... void execute_temp_measurement(uint8_t startPacketNum, uint8_t packetCount);
.................... 
.................... #endif // son_tmp_TEMP_H
.................... 
.................... #include "../core/storage/son_tmp_flash.h"
.................... #ifndef son_tmp_FLASH_H
.................... #define son_tmp_FLASH_H
.................... 
.................... #include <stdint.h>
.................... ///////////////////////////////////////////////////////////////////////////
.................... ////                                                                   ////
.................... ////                           stdint.h                                ////
.................... ////                                                                   ////
.................... //// Standard integer definitions.                                     ////
.................... ////                                                                   ////
.................... ///////////////////////////////////////////////////////////////////////////
.................... ////        (C) Copyright 1996,2008 Custom Computer Services           ////
.................... //// This source code may only be used by licensed users of the CCS C  ////
.................... //// compiler.  This source code may only be distributed to other      ////
.................... //// licensed users of the CCS C compiler.  No other use, reproduction ////
.................... //// or distribution is permitted without written permission.          ////
.................... //// Derivative programs created using this software in object code    ////
.................... //// form are not restricted in any way.                               ////
.................... ///////////////////////////////////////////////////////////////////////////
.................... 
.................... #ifndef _STDINT
.................... 
.................... #define _STDINT
.................... 
.................... //////////// exact width
.................... 
.................... typedef signed int8 int8_t;
.................... typedef unsigned int8 uint8_t;
.................... typedef signed int16 int16_t;
.................... typedef unsigned int16 uint16_t;
.................... typedef signed int32 int32_t;
.................... typedef unsigned int32 uint32_t;
.................... 
.................... #if defined(__PCD__)
.................... //typedef signed int24 int24_t;
.................... //typedef unsigned int24 uint24_t;
.................... typedef signed int64 int64_t;
.................... typedef unsigned int64 uint64_t;
.................... #endif
.................... 
.................... #define INT8_MAX  (127)
.................... #define INT8_MIN  (-128)
.................... #define UINT8_MAX (255)
.................... 
.................... #define INT16_MAX  (32767)
.................... #define INT16_MIN  (-32768)
.................... #define UINT16_MAX (65535)
.................... 
.................... #define INT32_MAX  (2147483647)
.................... #define INT32_MIN  (-2147483648)
.................... #define UINT32_MAX (4294967295)
.................... 
.................... #if defined(__PCD__)
.................... //#define INT24_MAX  (8388607)
.................... //#define INT24_MIN  (-8388608)
.................... //#define UINT24_MAX (16777215)
.................... 
.................... #define INT64_MAX  (9223372036854775807)
.................... #define INT64_MIN  (-9223372036854775808)
.................... #define UINT64_MAX (18446744073709551615)
.................... #endif
.................... 
.................... ///////// minimum width
.................... 
.................... typedef signed int8 int_least8_t;
.................... typedef unsigned int8 uint_least8_t;
.................... typedef signed int16 int_least16_t;
.................... typedef unsigned int16 uint_least16_t;
.................... typedef signed int32 int_least32_t;
.................... typedef unsigned int32 uint_least32_t;
.................... 
.................... #if defined(__PCD__)
.................... //typedef signed int24 int_least24_t;
.................... //typedef unsigned int24 uint_least24_t;
.................... typedef signed int64 int_least64_t;
.................... typedef unsigned int64 uint_least64_t;
.................... #endif
.................... 
.................... #define INT_LEAST8_MAX  (127)
.................... #define INT_LEAST8_MIN  (-128)
.................... #define UINT_LEAST8_MAX (255)
.................... 
.................... #define INT_LEAST16_MAX  (32767)
.................... #define INT_LEAST16_MIN  (-32768)
.................... #define UINT_LEAST16_MAX (65535)
.................... 
.................... #define INT_LEAST32_MAX  (2147483647)
.................... #define INT_LEAST32_MIN  (-2147483648)
.................... #define UINT_LEAST32_MAX (4294967295)
.................... 
.................... #if defined(__PCD__)
.................... //#define INT_LEAST24_MAX  (8388607)
.................... //#define INT_LEAST24_MIN  (-8388608)
.................... //#define UINT_LEAST24_MAX (16777215)
.................... 
.................... #define INT_LEAST64_MAX  (9223372036854775807)
.................... #define INT_LEAST64_MIN  (-9223372036854775808)
.................... #define UINT_LEAST64_MAX (18446744073709551615)
.................... #endif
.................... 
.................... ///////// fastest width
.................... 
.................... #if defined(__PCD__)
.................... typedef signed int16 int_fast8_t;
.................... typedef unsigned int16 uint_fast8_t;
.................... #define INT_FAST8_MAX  (32767)
.................... #define INT_FAST8_MIN  (-32768)
.................... #define UINT_FAST8_MAX (65535)
.................... typedef signed int16 int_fast16_t;
.................... typedef unsigned int16 uint_fast16_t;
.................... //typedef signed int24 int_fast24_t;
.................... //typedef unsigned int24 uint_fast24_t;
.................... typedef signed int64 int_fast64_t;
.................... typedef unsigned int64 uint_fast64_t;
.................... #else
.................... typedef signed int8 int_fast8_t;
.................... typedef unsigned int8 uint_fast8_t;
.................... #define INT_FAST8_MAX  (127)
.................... #define INT_FAST8_MIN  (-128)
.................... #define UINT_FAST8_MAX (255)
.................... typedef signed int16 int_fast16_t;
.................... typedef unsigned int16 uint_fast16_t;
.................... #endif
.................... 
.................... typedef signed int32 int_fast32_t;
.................... typedef unsigned int32 uint_fast32_t;
.................... 
.................... #define INT_FAST16_MAX  (32767)
.................... #define INT_FAST16_MIN  (-32768)
.................... #define UINT_FAST16_MAX (65535)
.................... 
.................... #define INT_FAST32_MAX  (2147483647)
.................... #define INT_FAST32_MIN  (-2147483648)
.................... #define UINT_FAST32_MAX (4294967295)
.................... 
.................... #if defined(__PCD__)
.................... //#define INT_FAST24_MAX  (8388607)
.................... //#define INT_FAST24_MIN  (-8388608)
.................... //#define UINT_FAST24_MAX (16777215)
.................... 
.................... #define INT_FAST64_MAX  (9223372036854775807)
.................... #define INT_FAST64_MIN  (-9223372036854775808)
.................... #define UINT_FAST64_MAX (18446744073709551615)
.................... #endif
.................... 
.................... //////////// big enough to hold pointers (OPTIONAL)
.................... 
.................... #if defined(__PCD__)
....................    typedef unsigned int32 uintptr_t;
....................    typedef signed int32 intptr_t;
.................... #else
....................    typedef unsigned int16 uintptr_t;
....................    typedef signed int16 intptr_t;
.................... #endif
.................... 
.................... #define INT8_C(val) ((int8_t)val)
.................... #define UINT8_C(val) ((uint8_t)val)
.................... #define INT16_C(val) ((int16_t)val)
.................... #define UINT16_C(val) ((uint16_t)val)
.................... #define INT32_C(val) ((int32_t)val)
.................... #define UINT32_C(val) ((uint32_t)val)
.................... 
.................... #if defined(__PCD__)
.................... #define INT64_C(val) ((int64_t)val)
.................... #define UINT64_C(val) ((uint64_t)val)
.................... #endif
.................... 
.................... /// TODO:
.................... /// INTPTRN_MIN INTPTRN_MAX UINTPTRN_MAX
.................... 
.................... 
.................... /////////// greatest width (OPTIONAL)
.................... 
.................... #ifdef __PCD__
....................    typedef signed int64 intmax_t;
....................    typedef unsigned int64 uintmax_t;
....................    
....................    #define INTMAXN_MAX  (9223372036854775807)
....................    #define INTMAXN_MIN  (-9223372036854775808)
....................    #define UINTMAXN_MAX (18446744073709551615)
....................    
....................    #define INTMAX_C(value) ((signed int64)val)
....................    #define UINTMAX_C(value) ((unsigned int64)val)
.................... #else
....................    typedef signed int32 intmax_t;
....................    typedef unsigned int32 uintmax_t;
....................    
....................    #define INTMAXN_MAX  (2147483647)
....................    #define INTMAXN_MIN  (-2147483648)
....................    #define UINTMAXN_MAX (4294967295)
....................    
....................    #define INTMAX_C(value) ((signed int32)val)
....................    #define UINTMAX_C(value) ((unsigned int32)val)
.................... #endif
.................... 
.................... 
.................... #endif
.................... 
.................... 
.................... #include <string.h>
.................... ////////////////////////////////////////////////////////////////////////////
.................... ////        (C) Copyright 1996,2008 Custom Computer Services            ////
.................... //// This source code may only be used by licensed users of the CCS C   ////
.................... //// compiler.  This source code may only be distributed to other       ////
.................... //// licensed users of the CCS C compiler.  No other use, reproduction  ////
.................... //// or distribution is permitted without written permission.           ////
.................... //// Derivative programs created using this software in object code     ////
.................... //// form are not restricted in any way.                                ////
.................... ////////////////////////////////////////////////////////////////////////////
.................... 
.................... #ifndef _STRING
.................... #define _STRING
.................... #include <stddef.h>
.................... ///////////////////////////////////////////////////////////////////////////
.................... ////        (C) Copyright 1996,2003 Custom Computer Services           ////
.................... //// This source code may only be used by licensed users of the CCS C  ////
.................... //// compiler.  This source code may only be distributed to other      ////
.................... //// licensed users of the CCS C compiler.  No other use, reproduction ////
.................... //// or distribution is permitted without written permission.          ////
.................... //// Derivative programs created using this software in object code    ////
.................... //// form are not restricted in any way.                               ////
.................... ///////////////////////////////////////////////////////////////////////////
.................... 
.................... #ifndef _STDDEF
.................... 
.................... #define _STDDEF
.................... 
.................... #if sizeof(unsigned int8 *)==1
.................... #define ptrdiff_t unsigned int8
.................... #else
.................... #define ptrdiff_t unsigned int16
.................... #endif
.................... 
.................... #if defined(__PCB__) || defined(__PCM__)
.................... #define size_t unsigned int8
.................... #else
.................... #define size_t unsigned int16
.................... #endif
.................... #define wchar_t unsigned char
.................... #define NULL 0
.................... 
.................... #define offsetof(s,f) (offsetofbit(s,f)/8)
.................... 
.................... #endif
.................... 
.................... #include <ctype.h>
.................... ////////////////////////////////////////////////////////////////////////////
.................... ////        (C) Copyright 1996,2003 Custom Computer Services            ////
.................... //// This source code may only be used by licensed users of the CCS C   ////
.................... //// compiler.  This source code may only be distributed to other       ////
.................... //// licensed users of the CCS C compiler.  No other use, reproduction  ////
.................... //// or distribution is permitted without written permission.           ////
.................... //// Derivative programs created using this software in object code     ////
.................... //// form are not restricted in any way.                                ////
.................... ////////////////////////////////////////////////////////////////////////////
.................... 
.................... #ifndef _CTYPE
.................... #define _CTYPE
.................... 
.................... #define islower(x)  isamong(x,"abcdefghijklmnopqrstuvwxyz")
.................... #define isupper(x)  isamong(x,"ABCDEFGHIJKLMNOPQRSTUVWXYZ")
.................... #define isalnum(x)  isamong(x,"0123456789ABCDEFGHIJKLMNOPQRSTUVWXYZabcdefghijklmnopqrstuvwxyz")
.................... #define isalpha(x)  isamong(x,"ABCDEFGHIJKLMNOPQRSTUVWXYZabcdefghijklmnopqrstuvwxyz")
.................... #define isdigit(x)  isamong(x,"0123456789")
.................... #define isspace(x)  ((x)==' ')
.................... #define isxdigit(x) isamong(x,"0123456789ABCDEFabcdef")
.................... #define iscntrl(x)  ((x)<' ')
.................... #define isprint(x)  ((x)>=' ')
.................... #define isgraph(x)  ((x)>' ')
.................... #define ispunct(x)  (((x)>' ')&&!isalnum(x))
.................... 
.................... #endif
.................... 
.................... 
.................... 
.................... 
.................... 
.................... //////////////////////////////////////////////
.................... //// Uncomment the following define to    ////
.................... //// allow some functions to use a        ////
.................... //// quicker algorithm, but use more ROM  ////
.................... ////                                      ////
.................... //// #define FASTER_BUT_MORE_ROM          ////
.................... //////////////////////////////////////////////
.................... 
.................... 
.................... 
.................... /*Copying functions*/
.................... /* standard template:
....................    void *memmove(void *s1, void *s2, size_t n).
....................    Copies max of n characters safely (not following ending '\0')
....................    from s2 in s1; if s2 has less than n characters, appends 0 */
.................... 
.................... unsigned char *memmove(void *s1,void *s2,size_t n)
.................... {
....................    unsigned char *sc1;
....................    unsigned char *sc2;
....................    sc1=s1;
....................    sc2=s2;
....................    if(sc2<sc1 && sc1 <sc2 +n)
....................       for(sc1+=n,sc2+=n;0<n;--n)
....................          *--sc1=*--sc2;
....................    else
....................       for(;0<n;--n)
....................          *sc1++=*sc2++;
....................   return s1;
....................   }
.................... 
.................... /* Standard template: char *strcpy(char *s1, const char *s2)
....................    copies the string s2 including the null character to s1.
....................    This is a compiler built in to handle the different address
....................    spaces */
.................... 
.................... #define strcopy strcpy
.................... 
.................... /* standard template:
....................    char *strncpy(char *s1, const char *s2, size_t n).
....................    Copies max of n characters (not following ending '\0')
....................    from s2 in s1; if s2 has less than n characters, appends 0 */
.................... 
.................... char *strncpy(char *s1, char *s2, size_t n)
.................... {
....................   char *s;
.................... 
....................   for (s = s1; n > 0 && *s2 != '\0'; n--)
....................      *s++ = *s2++;
....................   for (; n > 0; n--)
....................      *s++ = '\0';
.................... 
....................   return(s1);
.................... }
.................... /***********************************************************/
.................... 
.................... /*concatenation functions*/
.................... /* standard template: char *strcat(char *s1, const char *s2)
.................... appends s2 to s1*/
.................... 
.................... char *strcat(char *s1, char *s2)
.................... {
....................    unsigned char *s;
.................... 
....................    for (s = s1; *s != '\0'; ++s);
....................    while(*s2 != '\0')
....................    {
....................       *s = *s2;
....................       ++s;
....................       ++s2;
....................    }
.................... 
....................    *s = '\0';
....................    return(s1);
.................... }
.................... /* standard template: char *strncat(char *s1, char *s2,size_t n)
.................... appends not more than n characters from s2 to s1*/
.................... 
.................... char *strncat(char *s1, char *s2, size_t n)
.................... {
....................    char *s;
.................... 
....................    for (s = s1; *s != '\0'; ++s);
....................    while(*s2 != '\0' && 0<n)
....................    {
....................       *s = *s2;
....................       ++s;
....................       ++s2;
....................       --n;
....................    }
.................... 
....................    *s = '\0';
....................    return(s1);
.................... }
.................... 
.................... /***********************************************************/
.................... 
.................... 
.................... /*comparison functions*/
.................... /* standard template: signed int memcmp(void *s1, void *s2).
....................    Compares s1 & s2; returns -1 if s1<s2, 0 if s1=s2, 1 if s1>s2 */
.................... 
.................... signed int memcmp(void * s1,void *s2,size_t n)
.................... {
.................... unsigned char *su1, *su2;
.................... for(su1=s1, su2=s2; 0<n; ++su1, ++su2, --n)
.................... {
....................    if(*su1!=*su2)
....................       return ((*su1<*su2)?-1:1);
.................... }
.................... return 0;
.................... }
.................... 
.................... /* standard template: int strcmp(const char *s1, const char *s2).
....................    Compares s1 & s2; returns -1 if s1<s2, 0 if s1=s2, 1 if s1>s2 */
.................... 
.................... signed int strcmp(char *s1, char *s2)
.................... {
....................    for (; *s1 == *s2; s1++, s2++)
....................       if (*s1 == '\0')
....................          return(0);
....................    return((*s1 < *s2) ? -1: 1);
.................... }
.................... /* standard template: int strcoll(const char *s1, const char *s2).
....................    Compares s1 & s2; returns -1 if s1<s2, 0 if s1=s2, 1 if s1>s2 */
.................... 
.................... signed int strcoll(char *s1, char *s2)
.................... {
....................    for (; *s1 == *s2; s1++, s2++)
....................       if (*s1 == '\0')
....................          return(0);
....................    return((*s1 < *s2) ? -1: 1);
.................... }
.................... 
.................... /* standard template:
....................    int strncmp(const char *s1, const char *s2, size_t n).
....................    Compares max of n characters (not following 0) from s1 to s2;
....................    returns same as strcmp */
.................... 
.................... signed int strncmp(char *s1, char *s2, size_t n)
.................... {
....................    for (; n > 0; s1++, s2++, n--)
....................       if (*s1 != *s2)
....................          return((*s1 <*s2) ? -1: 1);
....................       else if (*s1 == '\0')
....................          return(0);
....................    return(0);
.................... }
.................... /* standard template:
....................    int strxfrm(const char *s1, const char *s2, size_t n).
....................    transforms maximum of n characters from s2 and places them into s1, returns number of chars written ot s1.
....................    if s1 is NULL and n is 0, then it returns the length of s2.*/
.................... size_t strxfrm(char *s1, char *s2, size_t n)
.................... {
....................    char c;
....................    size_t n1;
....................    
....................    if (!s1 && !n)
....................       n = -1; //find length
.................... 
....................    n1 = 0;
....................    
....................    for (; n1 < n; n1++)
....................    {
....................       c = *s2++;
....................       if (!c)
....................          break;
....................       if (s1)
....................          *s1++ = c;
....................    }
.................... 
....................   return(n1);
.................... }
.................... 
.................... 
.................... 
.................... 
.................... 
.................... /***********************************************************/
.................... /*Search functions*/
.................... /* standard template: void *memchr(const char *s, int c).
....................    Finds first occurrence of c in n characters of s */
.................... 
.................... char *memchr(void *s,unsigned int8 c,size_t n)
.................... {
....................    char uc;
....................    char *su;
....................    uc=c;
....................    for(su=s;0<n;++su,--n)
....................       if(*su==uc)
....................       return su;
....................    return NULL;
.................... }
.................... 
.................... /* standard template: char *strchr(const char *s, int c).
....................    Finds first occurrence of c in s */
.................... 
.................... char *strchr(char *s, char c)
.................... {
....................    for (; *s != c; s++)
....................       if (*s == '\0')
....................          return(0);
....................    return(s);
.................... }
.................... /* standard template:
....................    size_t strcspn(const char *s1, const char *s2).
....................    Computes length of max initial segment of s1 that
....................    consists entirely of characters NOT from s2*/
.................... 
.................... size_t strcspn(char *s1, char *s2)
.................... {
....................    char *sc1, *sc2;
.................... 
....................    for (sc1 = s1; *sc1 != 0; sc1++)
....................       for (sc2 = s2; *sc2 != 0; sc2++)
....................          if (*sc1 == *sc2)
....................             return(sc1 - s1);
....................    return(sc1 - s1);
.................... }
.................... /* standard template:
....................    char *strpbrk(const char *s1, const char *s2).
....................    Locates first occurence of any character from s2 in s1;
....................    returns s1 if s2 is empty string */
.................... 
.................... char *strpbrk(char *s1, char *s2)
.................... {
....................    char *sc1, *sc2;
.................... 
....................    for (sc1 = s1; *sc1 != 0; sc1++)
....................       for (sc2 = s2; *sc2 != 0; sc2++)
....................          if (*sc1 == *sc2)
....................             return(sc1);
....................    return(0);
.................... }
.................... 
.................... 
.................... /* standard template: char *strrchr(const char *s, int c).
....................    Finds last occurrence of c in s */
.................... 
.................... char *strrchr(char *s, char c)
.................... {
....................    char *p;
.................... 
....................    for (p = 0; ; s++)
....................    {
....................       if (*s == c)
....................          p = s;
....................       if (*s == '\0')
....................          return(p);
....................    }
.................... }
.................... /* computes length of max initial segment of s1 consisting
....................    entirely of characters from s2 */
.................... 
.................... size_t strspn(char *s1, char *s2)
.................... {
....................    char *sc1, *sc2;
.................... 
....................    for (sc1 = s1; *sc1 != 0; sc1++)
....................       for (sc2 = s2; ; sc2++)
....................     if (*sc2 == '\0')
....................        return(sc1 - s1);
....................          else if (*sc1 == *sc2)
....................             break;
....................    return(sc1 - s1);
.................... }
.................... /* standard template:
....................    char *strstr(const char *s1, const char *s2);
....................    Locates first occurence of character sequence s2 in s1;
....................    returns 0 if s2 is empty string
.................... 
....................    Uncomment #define FASTER_BUT_MORE_ROM at the top of the
....................    file to use the faster algorithm */
.................... char *strstr(char *s1, char *s2)
.................... {
....................    char *s, *t;
.................... 
....................    #ifdef FASTER_BUT_MORE_ROM
....................    if (*s2 == '\0')
....................          return(s1);
....................    #endif
.................... 
....................    while (*s1)
....................    {
....................       for(s = s1, t = s2; *t && (*s == *t); ++s, ++t);
.................... 
....................       if (*t == '\0')
....................          return s1;
....................       ++s1;
....................       #ifdef FASTER_BUT_MORE_ROM
....................          while(*s1 != '\0' && *s1 != *s2)
....................             ++s1;
....................       #endif
....................    }
....................    return 0;
.................... }
.................... 
.................... /* standard template: size_t strlen(const char *s).
....................    Computes length of s1 (preceding terminating 0) */
.................... 
.................... size_t strlen(char *s)
.................... {
....................    char *sc;
.................... 
....................    for (sc = s; *sc != 0; sc++);
....................    return(sc - s);
.................... }
.................... 
.................... /* standard template: char *strtok(char *s1, const char *s2).
.................... 
....................    Finds next token in s1 delimited by a character from separator
....................    string s2 (which can be different from call to call).  First call
....................    starts at beginning of s1 searching for first character NOT
....................    contained in s2; returns 0 if none is found.
....................    If one is found, it is the start of first token (return value).
....................    Function then searches from there for a character contained in s2.
....................    If none is found, current token extends to end of s1, and subsequent
....................    searches for a token will return 0.  If one is found, it is
....................    overwritten by '\0', which terminates current token.  Function saves
....................    pointer to following character from which next search will start.
....................    Each subsequent call, with 0 as first argument, starts searching
....................    from saved pointer */
.................... 
.................... char *strtok(char *s1, char *s2)
.................... {
....................    char *beg, *end;
....................    static char *save;
.................... 
....................    beg = (s1)? s1: save;
....................    beg += strspn(beg, s2);
....................    if (*beg == '\0')
....................       return(0);
....................       
....................    end = strpbrk(beg, s2);
....................    if (end != '\0')
....................    {
....................       *end = '\0';
....................       end++;
....................       save = end;
....................    }
....................    else
....................       save = beg + strlen(beg);
....................    
....................    return(beg);
.................... }
.................... 
.................... /*****************************************************************/
.................... /*Miscellaneous functions*/
.................... /* standard template
.................... maps error number in errnum to an error message string
.................... Returns: Pointer to string
.................... */
.................... #ifdef _ERRNO
.................... char * strerror(unsigned int8 errnum)
.................... {
.................... static unsigned char s[13];
.................... switch( errnum)
.................... {
.................... case 0:
....................    strcpy(s,"no errors");
....................    return s;
.................... case EDOM :
....................    strcpy(s,"domain error");
....................    return s;
.................... case ERANGE:
....................    strcpy(s,"range error");
....................    return s;
.................... }
.................... }
.................... #ENDIF
.................... 
.................... /* standard template: size_t stricmp(const char *s1, const char *s2).
....................    Compares s1 to s2 ignoring case (upper vs. lower) */
.................... 
.................... signed int stricmp(char *s1, char *s2)
.................... {
....................  for(; *s1==*s2||(isalpha(*s1)&&isalpha(*s2)&&((char)*s1==(char)*s2+(char)32||(char)*s2==(char)*s1+(char)32));
....................     s1++, s2++)
....................     if (*s1 == '\0')
....................        return(0);
....................  return((*s1 < *s2) ? -1: 1);
.................... }
.................... 
.................... 
.................... /* standard template: char *strlwr(char *s).
....................    Replaces uppercase letters by lowercase;
....................    returns pointer to new string s */
.................... 
.................... char *strlwr(char *s)
.................... {
....................    char *p;
.................... 
....................    for (p = s; *p != '\0'; p++)
....................       if (*p >= 'A' && *p <='Z')
....................          *p += 'a' - 'A';
....................    return(s);
.................... }
.................... 
.................... /* standard template: char *strupr(char *s).
....................    Replaces lowercase letters by upercase;
....................    returns pointer to new string s */
.................... 
.................... char *strupr(char *s)
.................... {
....................    char *p;
.................... 
....................    for (p = s; *p != '\0'; p++)
....................       if (*p >= 'a' && *p <='z')
....................          *p -= 'a' - 'A';
....................    return(s);
.................... }
.................... 
.................... 
.................... /************************************************************/
.................... 
.................... 
.................... #endif
.................... 
.................... #include "../../system/son_tmp_config.h"
.................... #ifndef son_tmp_CONFIG_H
.................... #define son_tmp_CONFIG_H
.................... 
.................... #define SELF_DEVICE_ID CIGS_PIC
.................... 
.................... #include <18F67J94.h>
.................... #opt 0 // 0 = no optimization
.................... 
.................... #use delay(crystal=16MHz)
.................... #fuses HS, NOWDT, NOBROWNOUT, NOPROTECT
.................... 
.................... #define PIC18
.................... 
.................... #ifdef PIC18
....................     // ==========================================
....................     // 1. ハードウェア構成とピンアサイン
....................     // ==========================================
.................... 
....................     #define PIN_LDO_EN          PIN_E1
....................     #define PIN_VREF_EN         PIN_E0
....................     #define PIN_LED1            PIN_A5
....................     #define PIN_LED2            PIN_A1
.................... 
....................     #define PIN_SW_DIO1         PIN_C1
....................     #define PIN_SW_DIO0         PIN_C2
.................... 
....................     // SPI Chip Select (BOSSヘッダ名称に適合)
....................     #define MIS_FM_CS           PIN_B1
....................     #define SMF_CS              PIN_D4
....................     #define PIN_CS_ADC          PIN_B3
.................... 
.................... // ------------------------------------------
....................     // UART 通信設定
....................     // ------------------------------------------
....................     #use rs232(baud=9600, parity=N, xmit=PIN_G0, bits=8, stream=PC, FORCE_SW, ERRORS)
.................... 
....................     // BOSS側: D1/D0ピンにハードウェアUART3を割り当てて使用する
....................     #pin_select TX3=PIN_D1
....................     #pin_select RX3=PIN_D0
....................     #use rs232(baud=9600, parity=N, UART3, bits=8, stream=BOSS, ERRORS)
.................... 
....................     // ------------------------------------------
....................     // SPI 通信設定
....................     // ------------------------------------------
....................     #use spi(MASTER, BAUD=1000000, MODE=0, BITS=8, DI=PIN_B5, DO=PIN_B4, CLK=PIN_B2, stream=MIS_FM_STREAM, FORCE_SW)
....................     #use spi(MASTER, BAUD=1000000, MODE=0, BITS=8, DI=PIN_D6, DO=PIN_D7, CLK=PIN_D5, stream=SMF_STREAM, FORCE_SW)
.................... 
.................... #endif
.................... 
.................... // ==========================================
.................... // 2. システムシーケンス コマンド定義
.................... // ==========================================
.................... #define CMD_MISSION_START       0x10
.................... #define RES_MISSION_DONE        0x11
.................... #define CMD_SMF_PREPARE         0x20
.................... #define REQ_SMF_COPY            0x21
.................... #define CMD_SMF_PERMIT          0x22
.................... #define REQ_POWER_OFF           0x30
.................... 
.................... // ==========================================
.................... // 3. データフォーマット・バッファ定義
.................... // ==========================================
.................... #define PACKET_SIZE             64
.................... #define FLASH_PAGE_SIZE         256
.................... #define PACKETS_PER_PAGE        4
.................... #define SMF_TRANSFER_PACKETS    15
.................... 
.................... // ヘッダー構造体 (8Byte)
.................... typedef struct
.................... {
....................     unsigned int32 timestamp;      // 4 Byte
....................     unsigned int8  mode : 3;       // 3 bit
....................     unsigned int8  channel : 1;    // 1 bit
....................     unsigned int8  samplingRate : 4; // 4 bit
....................     unsigned int16 dataCount;      // 12bitではなく16bit(2Byte)で確保しエラーを回避
....................     unsigned int8  zeroFill;       // 1 Byte (合計8Byteにするため)
.................... } PacketHeader;
.................... 
.................... typedef struct
.................... {
....................     PacketHeader header;           // 8 Byte
....................     unsigned int8 packetNum;       // 1 Byte
....................     unsigned int16 adcData[27];    // 54 Byte
....................     unsigned int8 crc8;            // 1 Byte
.................... } FirstPacket;
.................... 
.................... typedef struct
.................... {
....................     unsigned int8 packetNum;       // 1 Byte
....................     unsigned int16 adcData[31];    // 62 Byte
....................     unsigned int8 crc8;            // 1 Byte
.................... } SubsequentPacket;
.................... 
.................... typedef union
.................... {
....................     unsigned int8 raw[PACKET_SIZE];
....................     FirstPacket first;
....................     SubsequentPacket sub;
.................... } PacketBuffer;
.................... 
.................... #endif // son_tmp_CONFIG_H
.................... 
.................... 
.................... // 共通ライブラリのヘッダ (MissionIDなどの定数用)
.................... // #include "../../../lib/communication/typedef_content.h"
.................... // #include "../../../lib/communication/value_status.h"
.................... 
.................... // ============================================================================
.................... // メモリマップ定義 (MT25QL128ABA: 16MB)
.................... // ============================================================================
.................... #define MISF_START 0x00000000
.................... #define MISF_END   0x00FFFFFF
.................... 
.................... #define SECTOR_64K_BYTE  0x10000
.................... 
.................... #define MISF_CIGS_DATA_TABLE_SIZE 64
.................... 
.................... #define MISF_CIGS_DATA_TABLE_START 0x00000000
.................... #define MISF_CIGS_DATA_TABLE_END   0x00000FFF
.................... #define MISF_CIGS_PICLOG_START     0x00010000
.................... #define MISF_CIGS_PICLOG_END       0x00140FFF
.................... #define MISF_CIGS_ENVIRO_START     0x00281000
.................... #define MISF_CIGS_ENVIRO_END       0x00320FFF
.................... #define MISF_CIGS_IV_HEADER_START  0x00721000
.................... #define MISF_CIGS_IV_HEADER_END    0x007C0FFF
.................... #define MISF_CIGS_IV_DATA_START    0x007C1000
.................... #define MISF_CIGS_IV_DATA_END      0x00D00000
.................... 
.................... // ============================================================================
.................... // データ構造体定義
.................... // ============================================================================
.................... 
.................... // フラッシュカウンタ構造体 (11 Bytes)
.................... typedef struct
.................... {
....................     uint8_t   mission_id;
....................     uint32_t  used_counter;
....................     uint32_t  uncopied_counter;
....................     uint8_t   reserve_counter1;
....................     uint8_t   reserve_counter2;
.................... } Flash_t;
.................... 
.................... // テーブル保存用の64Byteパケット構造体
.................... typedef union
.................... {
....................     struct
....................     {
....................         union
....................         {
....................             struct
....................             {
....................                 Flash_t piclog;
....................                 Flash_t environment;
....................                 Flash_t iv_header;
....................                 Flash_t iv_data;
....................             } logdata;
....................             uint8_t reserve[63];
....................         } payload;
....................         uint8_t crc; // 1バイトのCRC
....................     } packet;
....................     uint8_t bytes[64];
.................... } FlashData_t;
.................... 
.................... typedef struct
.................... {
....................     uint32_t start_address;
....................     uint32_t end_address;
.................... } MisfStatusStruct;
.................... 
.................... typedef struct
.................... {
....................     uint32_t start_address;
....................     uint32_t size;
.................... } MisfWriteStruct;
.................... 
.................... // ============================================================================
.................... // グローバル変数 (宣言のみ、実体は.cファイルに記述)
.................... // ============================================================================
.................... extern Flash_t piclog_data;
.................... extern Flash_t environment_data;
.................... extern Flash_t iv_header;
.................... extern Flash_t iv_data;
.................... 
.................... // ============================================================================
.................... // 外部公開関数プロトタイプ
.................... // ============================================================================
.................... void misf_init(void);
.................... FlashData_t make_flash_data_table(void);
.................... void write_misf_address_area(void);
.................... MisfStatusStruct get_misf_status_struct(uint8_t mission_id);
.................... MisfWriteStruct get_misf_write_struct(uint8_t mission_id);
.................... void print_flash_status(void);
.................... 
.................... #endif // son_tmp_FLASH_H
.................... 
.................... #include "../core/logging/son_tmp_piclog.h"
.................... #ifndef son_tmp_PICLOG_H
.................... #define son_tmp_PICLOG_H
.................... 
.................... #include <stdint.h>
.................... ///////////////////////////////////////////////////////////////////////////
.................... ////                                                                   ////
.................... ////                           stdint.h                                ////
.................... ////                                                                   ////
.................... //// Standard integer definitions.                                     ////
.................... ////                                                                   ////
.................... ///////////////////////////////////////////////////////////////////////////
.................... ////        (C) Copyright 1996,2008 Custom Computer Services           ////
.................... //// This source code may only be used by licensed users of the CCS C  ////
.................... //// compiler.  This source code may only be distributed to other      ////
.................... //// licensed users of the CCS C compiler.  No other use, reproduction ////
.................... //// or distribution is permitted without written permission.          ////
.................... //// Derivative programs created using this software in object code    ////
.................... //// form are not restricted in any way.                               ////
.................... ///////////////////////////////////////////////////////////////////////////
.................... 
.................... #ifndef _STDINT
.................... 
.................... #define _STDINT
.................... 
.................... //////////// exact width
.................... 
.................... typedef signed int8 int8_t;
.................... typedef unsigned int8 uint8_t;
.................... typedef signed int16 int16_t;
.................... typedef unsigned int16 uint16_t;
.................... typedef signed int32 int32_t;
.................... typedef unsigned int32 uint32_t;
.................... 
.................... #if defined(__PCD__)
.................... //typedef signed int24 int24_t;
.................... //typedef unsigned int24 uint24_t;
.................... typedef signed int64 int64_t;
.................... typedef unsigned int64 uint64_t;
.................... #endif
.................... 
.................... #define INT8_MAX  (127)
.................... #define INT8_MIN  (-128)
.................... #define UINT8_MAX (255)
.................... 
.................... #define INT16_MAX  (32767)
.................... #define INT16_MIN  (-32768)
.................... #define UINT16_MAX (65535)
.................... 
.................... #define INT32_MAX  (2147483647)
.................... #define INT32_MIN  (-2147483648)
.................... #define UINT32_MAX (4294967295)
.................... 
.................... #if defined(__PCD__)
.................... //#define INT24_MAX  (8388607)
.................... //#define INT24_MIN  (-8388608)
.................... //#define UINT24_MAX (16777215)
.................... 
.................... #define INT64_MAX  (9223372036854775807)
.................... #define INT64_MIN  (-9223372036854775808)
.................... #define UINT64_MAX (18446744073709551615)
.................... #endif
.................... 
.................... ///////// minimum width
.................... 
.................... typedef signed int8 int_least8_t;
.................... typedef unsigned int8 uint_least8_t;
.................... typedef signed int16 int_least16_t;
.................... typedef unsigned int16 uint_least16_t;
.................... typedef signed int32 int_least32_t;
.................... typedef unsigned int32 uint_least32_t;
.................... 
.................... #if defined(__PCD__)
.................... //typedef signed int24 int_least24_t;
.................... //typedef unsigned int24 uint_least24_t;
.................... typedef signed int64 int_least64_t;
.................... typedef unsigned int64 uint_least64_t;
.................... #endif
.................... 
.................... #define INT_LEAST8_MAX  (127)
.................... #define INT_LEAST8_MIN  (-128)
.................... #define UINT_LEAST8_MAX (255)
.................... 
.................... #define INT_LEAST16_MAX  (32767)
.................... #define INT_LEAST16_MIN  (-32768)
.................... #define UINT_LEAST16_MAX (65535)
.................... 
.................... #define INT_LEAST32_MAX  (2147483647)
.................... #define INT_LEAST32_MIN  (-2147483648)
.................... #define UINT_LEAST32_MAX (4294967295)
.................... 
.................... #if defined(__PCD__)
.................... //#define INT_LEAST24_MAX  (8388607)
.................... //#define INT_LEAST24_MIN  (-8388608)
.................... //#define UINT_LEAST24_MAX (16777215)
.................... 
.................... #define INT_LEAST64_MAX  (9223372036854775807)
.................... #define INT_LEAST64_MIN  (-9223372036854775808)
.................... #define UINT_LEAST64_MAX (18446744073709551615)
.................... #endif
.................... 
.................... ///////// fastest width
.................... 
.................... #if defined(__PCD__)
.................... typedef signed int16 int_fast8_t;
.................... typedef unsigned int16 uint_fast8_t;
.................... #define INT_FAST8_MAX  (32767)
.................... #define INT_FAST8_MIN  (-32768)
.................... #define UINT_FAST8_MAX (65535)
.................... typedef signed int16 int_fast16_t;
.................... typedef unsigned int16 uint_fast16_t;
.................... //typedef signed int24 int_fast24_t;
.................... //typedef unsigned int24 uint_fast24_t;
.................... typedef signed int64 int_fast64_t;
.................... typedef unsigned int64 uint_fast64_t;
.................... #else
.................... typedef signed int8 int_fast8_t;
.................... typedef unsigned int8 uint_fast8_t;
.................... #define INT_FAST8_MAX  (127)
.................... #define INT_FAST8_MIN  (-128)
.................... #define UINT_FAST8_MAX (255)
.................... typedef signed int16 int_fast16_t;
.................... typedef unsigned int16 uint_fast16_t;
.................... #endif
.................... 
.................... typedef signed int32 int_fast32_t;
.................... typedef unsigned int32 uint_fast32_t;
.................... 
.................... #define INT_FAST16_MAX  (32767)
.................... #define INT_FAST16_MIN  (-32768)
.................... #define UINT_FAST16_MAX (65535)
.................... 
.................... #define INT_FAST32_MAX  (2147483647)
.................... #define INT_FAST32_MIN  (-2147483648)
.................... #define UINT_FAST32_MAX (4294967295)
.................... 
.................... #if defined(__PCD__)
.................... //#define INT_FAST24_MAX  (8388607)
.................... //#define INT_FAST24_MIN  (-8388608)
.................... //#define UINT_FAST24_MAX (16777215)
.................... 
.................... #define INT_FAST64_MAX  (9223372036854775807)
.................... #define INT_FAST64_MIN  (-9223372036854775808)
.................... #define UINT_FAST64_MAX (18446744073709551615)
.................... #endif
.................... 
.................... //////////// big enough to hold pointers (OPTIONAL)
.................... 
.................... #if defined(__PCD__)
....................    typedef unsigned int32 uintptr_t;
....................    typedef signed int32 intptr_t;
.................... #else
....................    typedef unsigned int16 uintptr_t;
....................    typedef signed int16 intptr_t;
.................... #endif
.................... 
.................... #define INT8_C(val) ((int8_t)val)
.................... #define UINT8_C(val) ((uint8_t)val)
.................... #define INT16_C(val) ((int16_t)val)
.................... #define UINT16_C(val) ((uint16_t)val)
.................... #define INT32_C(val) ((int32_t)val)
.................... #define UINT32_C(val) ((uint32_t)val)
.................... 
.................... #if defined(__PCD__)
.................... #define INT64_C(val) ((int64_t)val)
.................... #define UINT64_C(val) ((uint64_t)val)
.................... #endif
.................... 
.................... /// TODO:
.................... /// INTPTRN_MIN INTPTRN_MAX UINTPTRN_MAX
.................... 
.................... 
.................... /////////// greatest width (OPTIONAL)
.................... 
.................... #ifdef __PCD__
....................    typedef signed int64 intmax_t;
....................    typedef unsigned int64 uintmax_t;
....................    
....................    #define INTMAXN_MAX  (9223372036854775807)
....................    #define INTMAXN_MIN  (-9223372036854775808)
....................    #define UINTMAXN_MAX (18446744073709551615)
....................    
....................    #define INTMAX_C(value) ((signed int64)val)
....................    #define UINTMAX_C(value) ((unsigned int64)val)
.................... #else
....................    typedef signed int32 intmax_t;
....................    typedef unsigned int32 uintmax_t;
....................    
....................    #define INTMAXN_MAX  (2147483647)
....................    #define INTMAXN_MIN  (-2147483648)
....................    #define UINTMAXN_MAX (4294967295)
....................    
....................    #define INTMAX_C(value) ((signed int32)val)
....................    #define UINTMAX_C(value) ((unsigned int32)val)
.................... #endif
.................... 
.................... 
.................... #endif
.................... 
.................... 
.................... #include <string.h>
.................... ////////////////////////////////////////////////////////////////////////////
.................... ////        (C) Copyright 1996,2008 Custom Computer Services            ////
.................... //// This source code may only be used by licensed users of the CCS C   ////
.................... //// compiler.  This source code may only be distributed to other       ////
.................... //// licensed users of the CCS C compiler.  No other use, reproduction  ////
.................... //// or distribution is permitted without written permission.           ////
.................... //// Derivative programs created using this software in object code     ////
.................... //// form are not restricted in any way.                                ////
.................... ////////////////////////////////////////////////////////////////////////////
.................... 
.................... #ifndef _STRING
.................... #define _STRING
.................... #include <stddef.h>
.................... #include <ctype.h>
.................... 
.................... 
.................... 
.................... //////////////////////////////////////////////
.................... //// Uncomment the following define to    ////
.................... //// allow some functions to use a        ////
.................... //// quicker algorithm, but use more ROM  ////
.................... ////                                      ////
.................... //// #define FASTER_BUT_MORE_ROM          ////
.................... //////////////////////////////////////////////
.................... 
.................... 
.................... 
.................... /*Copying functions*/
.................... /* standard template:
....................    void *memmove(void *s1, void *s2, size_t n).
....................    Copies max of n characters safely (not following ending '\0')
....................    from s2 in s1; if s2 has less than n characters, appends 0 */
.................... 
.................... unsigned char *memmove(void *s1,void *s2,size_t n)
.................... {
....................    unsigned char *sc1;
....................    unsigned char *sc2;
....................    sc1=s1;
....................    sc2=s2;
....................    if(sc2<sc1 && sc1 <sc2 +n)
....................       for(sc1+=n,sc2+=n;0<n;--n)
....................          *--sc1=*--sc2;
....................    else
....................       for(;0<n;--n)
....................          *sc1++=*sc2++;
....................   return s1;
....................   }
.................... 
.................... /* Standard template: char *strcpy(char *s1, const char *s2)
....................    copies the string s2 including the null character to s1.
....................    This is a compiler built in to handle the different address
....................    spaces */
.................... 
.................... #define strcopy strcpy
.................... 
.................... /* standard template:
....................    char *strncpy(char *s1, const char *s2, size_t n).
....................    Copies max of n characters (not following ending '\0')
....................    from s2 in s1; if s2 has less than n characters, appends 0 */
.................... 
.................... char *strncpy(char *s1, char *s2, size_t n)
.................... {
....................   char *s;
.................... 
....................   for (s = s1; n > 0 && *s2 != '\0'; n--)
....................      *s++ = *s2++;
....................   for (; n > 0; n--)
....................      *s++ = '\0';
.................... 
....................   return(s1);
.................... }
.................... /***********************************************************/
.................... 
.................... /*concatenation functions*/
.................... /* standard template: char *strcat(char *s1, const char *s2)
.................... appends s2 to s1*/
.................... 
.................... char *strcat(char *s1, char *s2)
.................... {
....................    unsigned char *s;
.................... 
....................    for (s = s1; *s != '\0'; ++s);
....................    while(*s2 != '\0')
....................    {
....................       *s = *s2;
....................       ++s;
....................       ++s2;
....................    }
.................... 
....................    *s = '\0';
....................    return(s1);
.................... }
.................... /* standard template: char *strncat(char *s1, char *s2,size_t n)
.................... appends not more than n characters from s2 to s1*/
.................... 
.................... char *strncat(char *s1, char *s2, size_t n)
.................... {
....................    char *s;
.................... 
....................    for (s = s1; *s != '\0'; ++s);
....................    while(*s2 != '\0' && 0<n)
....................    {
....................       *s = *s2;
....................       ++s;
....................       ++s2;
....................       --n;
....................    }
.................... 
....................    *s = '\0';
....................    return(s1);
.................... }
.................... 
.................... /***********************************************************/
.................... 
.................... 
.................... /*comparison functions*/
.................... /* standard template: signed int memcmp(void *s1, void *s2).
....................    Compares s1 & s2; returns -1 if s1<s2, 0 if s1=s2, 1 if s1>s2 */
.................... 
.................... signed int memcmp(void * s1,void *s2,size_t n)
.................... {
.................... unsigned char *su1, *su2;
.................... for(su1=s1, su2=s2; 0<n; ++su1, ++su2, --n)
.................... {
....................    if(*su1!=*su2)
....................       return ((*su1<*su2)?-1:1);
.................... }
.................... return 0;
.................... }
.................... 
.................... /* standard template: int strcmp(const char *s1, const char *s2).
....................    Compares s1 & s2; returns -1 if s1<s2, 0 if s1=s2, 1 if s1>s2 */
.................... 
.................... signed int strcmp(char *s1, char *s2)
.................... {
....................    for (; *s1 == *s2; s1++, s2++)
....................       if (*s1 == '\0')
....................          return(0);
....................    return((*s1 < *s2) ? -1: 1);
.................... }
.................... /* standard template: int strcoll(const char *s1, const char *s2).
....................    Compares s1 & s2; returns -1 if s1<s2, 0 if s1=s2, 1 if s1>s2 */
.................... 
.................... signed int strcoll(char *s1, char *s2)
.................... {
....................    for (; *s1 == *s2; s1++, s2++)
....................       if (*s1 == '\0')
....................          return(0);
....................    return((*s1 < *s2) ? -1: 1);
.................... }
.................... 
.................... /* standard template:
....................    int strncmp(const char *s1, const char *s2, size_t n).
....................    Compares max of n characters (not following 0) from s1 to s2;
....................    returns same as strcmp */
.................... 
.................... signed int strncmp(char *s1, char *s2, size_t n)
.................... {
....................    for (; n > 0; s1++, s2++, n--)
....................       if (*s1 != *s2)
....................          return((*s1 <*s2) ? -1: 1);
....................       else if (*s1 == '\0')
....................          return(0);
....................    return(0);
.................... }
.................... /* standard template:
....................    int strxfrm(const char *s1, const char *s2, size_t n).
....................    transforms maximum of n characters from s2 and places them into s1, returns number of chars written ot s1.
....................    if s1 is NULL and n is 0, then it returns the length of s2.*/
.................... size_t strxfrm(char *s1, char *s2, size_t n)
.................... {
....................    char c;
....................    size_t n1;
....................    
....................    if (!s1 && !n)
....................       n = -1; //find length
.................... 
....................    n1 = 0;
....................    
....................    for (; n1 < n; n1++)
....................    {
....................       c = *s2++;
....................       if (!c)
....................          break;
....................       if (s1)
....................          *s1++ = c;
....................    }
.................... 
....................   return(n1);
.................... }
.................... 
.................... 
.................... 
.................... 
.................... 
.................... /***********************************************************/
.................... /*Search functions*/
.................... /* standard template: void *memchr(const char *s, int c).
....................    Finds first occurrence of c in n characters of s */
.................... 
.................... char *memchr(void *s,unsigned int8 c,size_t n)
.................... {
....................    char uc;
....................    char *su;
....................    uc=c;
....................    for(su=s;0<n;++su,--n)
....................       if(*su==uc)
....................       return su;
....................    return NULL;
.................... }
.................... 
.................... /* standard template: char *strchr(const char *s, int c).
....................    Finds first occurrence of c in s */
.................... 
.................... char *strchr(char *s, char c)
.................... {
....................    for (; *s != c; s++)
....................       if (*s == '\0')
....................          return(0);
....................    return(s);
.................... }
.................... /* standard template:
....................    size_t strcspn(const char *s1, const char *s2).
....................    Computes length of max initial segment of s1 that
....................    consists entirely of characters NOT from s2*/
.................... 
.................... size_t strcspn(char *s1, char *s2)
.................... {
....................    char *sc1, *sc2;
.................... 
....................    for (sc1 = s1; *sc1 != 0; sc1++)
....................       for (sc2 = s2; *sc2 != 0; sc2++)
....................          if (*sc1 == *sc2)
....................             return(sc1 - s1);
....................    return(sc1 - s1);
.................... }
.................... /* standard template:
....................    char *strpbrk(const char *s1, const char *s2).
....................    Locates first occurence of any character from s2 in s1;
....................    returns s1 if s2 is empty string */
.................... 
.................... char *strpbrk(char *s1, char *s2)
.................... {
....................    char *sc1, *sc2;
.................... 
....................    for (sc1 = s1; *sc1 != 0; sc1++)
....................       for (sc2 = s2; *sc2 != 0; sc2++)
....................          if (*sc1 == *sc2)
....................             return(sc1);
....................    return(0);
.................... }
.................... 
.................... 
.................... /* standard template: char *strrchr(const char *s, int c).
....................    Finds last occurrence of c in s */
.................... 
.................... char *strrchr(char *s, char c)
.................... {
....................    char *p;
.................... 
....................    for (p = 0; ; s++)
....................    {
....................       if (*s == c)
....................          p = s;
....................       if (*s == '\0')
....................          return(p);
....................    }
.................... }
.................... /* computes length of max initial segment of s1 consisting
....................    entirely of characters from s2 */
.................... 
.................... size_t strspn(char *s1, char *s2)
.................... {
....................    char *sc1, *sc2;
.................... 
....................    for (sc1 = s1; *sc1 != 0; sc1++)
....................       for (sc2 = s2; ; sc2++)
....................     if (*sc2 == '\0')
....................        return(sc1 - s1);
....................          else if (*sc1 == *sc2)
....................             break;
....................    return(sc1 - s1);
.................... }
.................... /* standard template:
....................    char *strstr(const char *s1, const char *s2);
....................    Locates first occurence of character sequence s2 in s1;
....................    returns 0 if s2 is empty string
.................... 
....................    Uncomment #define FASTER_BUT_MORE_ROM at the top of the
....................    file to use the faster algorithm */
.................... char *strstr(char *s1, char *s2)
.................... {
....................    char *s, *t;
.................... 
....................    #ifdef FASTER_BUT_MORE_ROM
....................    if (*s2 == '\0')
....................          return(s1);
....................    #endif
.................... 
....................    while (*s1)
....................    {
....................       for(s = s1, t = s2; *t && (*s == *t); ++s, ++t);
.................... 
....................       if (*t == '\0')
....................          return s1;
....................       ++s1;
....................       #ifdef FASTER_BUT_MORE_ROM
....................          while(*s1 != '\0' && *s1 != *s2)
....................             ++s1;
....................       #endif
....................    }
....................    return 0;
.................... }
.................... 
.................... /* standard template: size_t strlen(const char *s).
....................    Computes length of s1 (preceding terminating 0) */
.................... 
.................... size_t strlen(char *s)
.................... {
....................    char *sc;
.................... 
....................    for (sc = s; *sc != 0; sc++);
....................    return(sc - s);
.................... }
.................... 
.................... /* standard template: char *strtok(char *s1, const char *s2).
.................... 
....................    Finds next token in s1 delimited by a character from separator
....................    string s2 (which can be different from call to call).  First call
....................    starts at beginning of s1 searching for first character NOT
....................    contained in s2; returns 0 if none is found.
....................    If one is found, it is the start of first token (return value).
....................    Function then searches from there for a character contained in s2.
....................    If none is found, current token extends to end of s1, and subsequent
....................    searches for a token will return 0.  If one is found, it is
....................    overwritten by '\0', which terminates current token.  Function saves
....................    pointer to following character from which next search will start.
....................    Each subsequent call, with 0 as first argument, starts searching
....................    from saved pointer */
.................... 
.................... char *strtok(char *s1, char *s2)
.................... {
....................    char *beg, *end;
....................    static char *save;
.................... 
....................    beg = (s1)? s1: save;
....................    beg += strspn(beg, s2);
....................    if (*beg == '\0')
....................       return(0);
....................       
....................    end = strpbrk(beg, s2);
....................    if (end != '\0')
....................    {
....................       *end = '\0';
....................       end++;
....................       save = end;
....................    }
....................    else
....................       save = beg + strlen(beg);
....................    
....................    return(beg);
.................... }
.................... 
.................... /*****************************************************************/
.................... /*Miscellaneous functions*/
.................... /* standard template
.................... maps error number in errnum to an error message string
.................... Returns: Pointer to string
.................... */
.................... #ifdef _ERRNO
.................... char * strerror(unsigned int8 errnum)
.................... {
.................... static unsigned char s[13];
.................... switch( errnum)
.................... {
.................... case 0:
....................    strcpy(s,"no errors");
....................    return s;
.................... case EDOM :
....................    strcpy(s,"domain error");
....................    return s;
.................... case ERANGE:
....................    strcpy(s,"range error");
....................    return s;
.................... }
.................... }
.................... #ENDIF
.................... 
.................... /* standard template: size_t stricmp(const char *s1, const char *s2).
....................    Compares s1 to s2 ignoring case (upper vs. lower) */
.................... 
.................... signed int stricmp(char *s1, char *s2)
.................... {
....................  for(; *s1==*s2||(isalpha(*s1)&&isalpha(*s2)&&((char)*s1==(char)*s2+(char)32||(char)*s2==(char)*s1+(char)32));
....................     s1++, s2++)
....................     if (*s1 == '\0')
....................        return(0);
....................  return((*s1 < *s2) ? -1: 1);
.................... }
.................... 
.................... 
.................... /* standard template: char *strlwr(char *s).
....................    Replaces uppercase letters by lowercase;
....................    returns pointer to new string s */
.................... 
.................... char *strlwr(char *s)
.................... {
....................    char *p;
.................... 
....................    for (p = s; *p != '\0'; p++)
....................       if (*p >= 'A' && *p <='Z')
....................          *p += 'a' - 'A';
....................    return(s);
.................... }
.................... 
.................... /* standard template: char *strupr(char *s).
....................    Replaces lowercase letters by upercase;
....................    returns pointer to new string s */
.................... 
.................... char *strupr(char *s)
.................... {
....................    char *p;
.................... 
....................    for (p = s; *p != '\0'; p++)
....................       if (*p >= 'a' && *p <='z')
....................          *p -= 'a' - 'A';
....................    return(s);
.................... }
.................... 
.................... 
.................... /************************************************************/
.................... 
.................... 
.................... #endif
.................... 
.................... 
.................... // ============================================================================
.................... // PICLOG 定数定義
.................... // ============================================================================
.................... #define PICLOG_STARTUP     0x00
.................... #define PICLOG_PARAM_START 0x00
.................... #define PICLOG_PARAM_END   0xFF
.................... 
.................... #define PICLOG_PACKET_SIZE 6
.................... #define PICLOG_BLANK_SIZE  4
.................... 
.................... // ============================================================================
.................... // PICLOG データ構造体 (6 Byte)
.................... // ============================================================================
.................... typedef union
.................... {
....................     struct
....................     {
....................         uint32_t time;       // 4 Byte: タイムスタンプ
....................         uint8_t  function;   // 1 Byte: 実行関数・イベントID
....................         uint8_t  parameter;  // 1 Byte: パラメータ・状態
....................     } fields;
....................     uint8_t bytes[PICLOG_PACKET_SIZE];
.................... } PICLOG_t;
.................... 
.................... // ============================================================================
.................... // 外部公開関数プロトタイプ
.................... // ============================================================================
.................... 
.................... // ログを作成し、フラッシュメモリに書き込む
.................... // function: イベントID
.................... // parameter: 状態パラメータ
.................... void piclog_make(uint8_t function, uint8_t parameter);
.................... 
.................... #endif // son_tmp_PICLOG_H
.................... 
.................... 
.................... // レベル7: アプリケーションヘッダー
.................... #include "../application/mission/son_tmp_excute_mission.h"
.................... #ifndef SON_TMP_EXCUTE_MISSION_H
.................... #define SON_TMP_EXCUTE_MISSION_H
.................... 
.................... #include <stdint.h>
.................... ///////////////////////////////////////////////////////////////////////////
.................... ////                                                                   ////
.................... ////                           stdint.h                                ////
.................... ////                                                                   ////
.................... //// Standard integer definitions.                                     ////
.................... ////                                                                   ////
.................... ///////////////////////////////////////////////////////////////////////////
.................... ////        (C) Copyright 1996,2008 Custom Computer Services           ////
.................... //// This source code may only be used by licensed users of the CCS C  ////
.................... //// compiler.  This source code may only be distributed to other      ////
.................... //// licensed users of the CCS C compiler.  No other use, reproduction ////
.................... //// or distribution is permitted without written permission.          ////
.................... //// Derivative programs created using this software in object code    ////
.................... //// form are not restricted in any way.                               ////
.................... ///////////////////////////////////////////////////////////////////////////
.................... 
.................... #ifndef _STDINT
.................... 
.................... #define _STDINT
.................... 
.................... //////////// exact width
.................... 
.................... typedef signed int8 int8_t;
.................... typedef unsigned int8 uint8_t;
.................... typedef signed int16 int16_t;
.................... typedef unsigned int16 uint16_t;
.................... typedef signed int32 int32_t;
.................... typedef unsigned int32 uint32_t;
.................... 
.................... #if defined(__PCD__)
.................... //typedef signed int24 int24_t;
.................... //typedef unsigned int24 uint24_t;
.................... typedef signed int64 int64_t;
.................... typedef unsigned int64 uint64_t;
.................... #endif
.................... 
.................... #define INT8_MAX  (127)
.................... #define INT8_MIN  (-128)
.................... #define UINT8_MAX (255)
.................... 
.................... #define INT16_MAX  (32767)
.................... #define INT16_MIN  (-32768)
.................... #define UINT16_MAX (65535)
.................... 
.................... #define INT32_MAX  (2147483647)
.................... #define INT32_MIN  (-2147483648)
.................... #define UINT32_MAX (4294967295)
.................... 
.................... #if defined(__PCD__)
.................... //#define INT24_MAX  (8388607)
.................... //#define INT24_MIN  (-8388608)
.................... //#define UINT24_MAX (16777215)
.................... 
.................... #define INT64_MAX  (9223372036854775807)
.................... #define INT64_MIN  (-9223372036854775808)
.................... #define UINT64_MAX (18446744073709551615)
.................... #endif
.................... 
.................... ///////// minimum width
.................... 
.................... typedef signed int8 int_least8_t;
.................... typedef unsigned int8 uint_least8_t;
.................... typedef signed int16 int_least16_t;
.................... typedef unsigned int16 uint_least16_t;
.................... typedef signed int32 int_least32_t;
.................... typedef unsigned int32 uint_least32_t;
.................... 
.................... #if defined(__PCD__)
.................... //typedef signed int24 int_least24_t;
.................... //typedef unsigned int24 uint_least24_t;
.................... typedef signed int64 int_least64_t;
.................... typedef unsigned int64 uint_least64_t;
.................... #endif
.................... 
.................... #define INT_LEAST8_MAX  (127)
.................... #define INT_LEAST8_MIN  (-128)
.................... #define UINT_LEAST8_MAX (255)
.................... 
.................... #define INT_LEAST16_MAX  (32767)
.................... #define INT_LEAST16_MIN  (-32768)
.................... #define UINT_LEAST16_MAX (65535)
.................... 
.................... #define INT_LEAST32_MAX  (2147483647)
.................... #define INT_LEAST32_MIN  (-2147483648)
.................... #define UINT_LEAST32_MAX (4294967295)
.................... 
.................... #if defined(__PCD__)
.................... //#define INT_LEAST24_MAX  (8388607)
.................... //#define INT_LEAST24_MIN  (-8388608)
.................... //#define UINT_LEAST24_MAX (16777215)
.................... 
.................... #define INT_LEAST64_MAX  (9223372036854775807)
.................... #define INT_LEAST64_MIN  (-9223372036854775808)
.................... #define UINT_LEAST64_MAX (18446744073709551615)
.................... #endif
.................... 
.................... ///////// fastest width
.................... 
.................... #if defined(__PCD__)
.................... typedef signed int16 int_fast8_t;
.................... typedef unsigned int16 uint_fast8_t;
.................... #define INT_FAST8_MAX  (32767)
.................... #define INT_FAST8_MIN  (-32768)
.................... #define UINT_FAST8_MAX (65535)
.................... typedef signed int16 int_fast16_t;
.................... typedef unsigned int16 uint_fast16_t;
.................... //typedef signed int24 int_fast24_t;
.................... //typedef unsigned int24 uint_fast24_t;
.................... typedef signed int64 int_fast64_t;
.................... typedef unsigned int64 uint_fast64_t;
.................... #else
.................... typedef signed int8 int_fast8_t;
.................... typedef unsigned int8 uint_fast8_t;
.................... #define INT_FAST8_MAX  (127)
.................... #define INT_FAST8_MIN  (-128)
.................... #define UINT_FAST8_MAX (255)
.................... typedef signed int16 int_fast16_t;
.................... typedef unsigned int16 uint_fast16_t;
.................... #endif
.................... 
.................... typedef signed int32 int_fast32_t;
.................... typedef unsigned int32 uint_fast32_t;
.................... 
.................... #define INT_FAST16_MAX  (32767)
.................... #define INT_FAST16_MIN  (-32768)
.................... #define UINT_FAST16_MAX (65535)
.................... 
.................... #define INT_FAST32_MAX  (2147483647)
.................... #define INT_FAST32_MIN  (-2147483648)
.................... #define UINT_FAST32_MAX (4294967295)
.................... 
.................... #if defined(__PCD__)
.................... //#define INT_FAST24_MAX  (8388607)
.................... //#define INT_FAST24_MIN  (-8388608)
.................... //#define UINT_FAST24_MAX (16777215)
.................... 
.................... #define INT_FAST64_MAX  (9223372036854775807)
.................... #define INT_FAST64_MIN  (-9223372036854775808)
.................... #define UINT_FAST64_MAX (18446744073709551615)
.................... #endif
.................... 
.................... //////////// big enough to hold pointers (OPTIONAL)
.................... 
.................... #if defined(__PCD__)
....................    typedef unsigned int32 uintptr_t;
....................    typedef signed int32 intptr_t;
.................... #else
....................    typedef unsigned int16 uintptr_t;
....................    typedef signed int16 intptr_t;
.................... #endif
.................... 
.................... #define INT8_C(val) ((int8_t)val)
.................... #define UINT8_C(val) ((uint8_t)val)
.................... #define INT16_C(val) ((int16_t)val)
.................... #define UINT16_C(val) ((uint16_t)val)
.................... #define INT32_C(val) ((int32_t)val)
.................... #define UINT32_C(val) ((uint32_t)val)
.................... 
.................... #if defined(__PCD__)
.................... #define INT64_C(val) ((int64_t)val)
.................... #define UINT64_C(val) ((uint64_t)val)
.................... #endif
.................... 
.................... /// TODO:
.................... /// INTPTRN_MIN INTPTRN_MAX UINTPTRN_MAX
.................... 
.................... 
.................... /////////// greatest width (OPTIONAL)
.................... 
.................... #ifdef __PCD__
....................    typedef signed int64 intmax_t;
....................    typedef unsigned int64 uintmax_t;
....................    
....................    #define INTMAXN_MAX  (9223372036854775807)
....................    #define INTMAXN_MIN  (-9223372036854775808)
....................    #define UINTMAXN_MAX (18446744073709551615)
....................    
....................    #define INTMAX_C(value) ((signed int64)val)
....................    #define UINTMAX_C(value) ((unsigned int64)val)
.................... #else
....................    typedef signed int32 intmax_t;
....................    typedef unsigned int32 uintmax_t;
....................    
....................    #define INTMAXN_MAX  (2147483647)
....................    #define INTMAXN_MIN  (-2147483648)
....................    #define UINTMAXN_MAX (4294967295)
....................    
....................    #define INTMAX_C(value) ((signed int32)val)
....................    #define UINTMAX_C(value) ((unsigned int32)val)
.................... #endif
.................... 
.................... 
.................... #endif
.................... 
.................... 
.................... #include <stdbool.h>
.................... ///////////////////////////////////////////////////////////////////////////
.................... ////                                                                   ////
.................... ////                          stdbool.h                                ////
.................... ////                                                                   ////
.................... //// Standard boolean definitions                                      ////
.................... ////                                                                   ////
.................... ///////////////////////////////////////////////////////////////////////////
.................... ////        (C) Copyright 1996,2012 Custom Computer Services           ////
.................... //// This source code may only be used by licensed users of the CCS C  ////
.................... //// compiler.  This source code may only be distributed to other      ////
.................... //// licensed users of the CCS C compiler.  No other use, reproduction ////
.................... //// or distribution is permitted without written permission.          ////
.................... //// Derivative programs created using this software in object code    ////
.................... //// form are not restricted in any way.                               ////
.................... ///////////////////////////////////////////////////////////////////////////
.................... 
.................... #ifndef __STDBOOL_H__
.................... #define __STDBOOL_H__
.................... 
.................... #if !getenv("CASE")
....................    // remove TRUE and FALSE added by CCS's device .h file, only if
....................    // compiler has case sensitivty off.
.................... 
....................    #if defined(TRUE)
....................       #undef TRUE
....................    #endif
....................    
....................    #if defined(FALSE)
....................       #undef FALSE
....................    #endif
.................... #endif
.................... 
.................... typedef int1   bool;
.................... #define true   1
.................... #define false  0
.................... #define __bool_true_false_are_defined  1
.................... 
.................... #endif
.................... 
.................... 
.................... #include "../../system/son_tmp_config.h"
.................... #ifndef son_tmp_CONFIG_H
.................... #define son_tmp_CONFIG_H
.................... 
.................... #define SELF_DEVICE_ID CIGS_PIC
.................... 
.................... #include <18F67J94.h>
.................... #opt 0 // 0 = no optimization
.................... 
.................... #use delay(crystal=16MHz)
.................... #fuses HS, NOWDT, NOBROWNOUT, NOPROTECT
.................... 
.................... #define PIC18
.................... 
.................... #ifdef PIC18
....................     // ==========================================
....................     // 1. ハードウェア構成とピンアサイン
....................     // ==========================================
.................... 
....................     #define PIN_LDO_EN          PIN_E1
....................     #define PIN_VREF_EN         PIN_E0
....................     #define PIN_LED1            PIN_A5
....................     #define PIN_LED2            PIN_A1
.................... 
....................     #define PIN_SW_DIO1         PIN_C1
....................     #define PIN_SW_DIO0         PIN_C2
.................... 
....................     // SPI Chip Select (BOSSヘッダ名称に適合)
....................     #define MIS_FM_CS           PIN_B1
....................     #define SMF_CS              PIN_D4
....................     #define PIN_CS_ADC          PIN_B3
.................... 
.................... // ------------------------------------------
....................     // UART 通信設定
....................     // ------------------------------------------
....................     #use rs232(baud=9600, parity=N, xmit=PIN_G0, bits=8, stream=PC, FORCE_SW, ERRORS)
.................... 
....................     // BOSS側: D1/D0ピンにハードウェアUART3を割り当てて使用する
....................     #pin_select TX3=PIN_D1
....................     #pin_select RX3=PIN_D0
....................     #use rs232(baud=9600, parity=N, UART3, bits=8, stream=BOSS, ERRORS)
.................... 
....................     // ------------------------------------------
....................     // SPI 通信設定
....................     // ------------------------------------------
....................     #use spi(MASTER, BAUD=1000000, MODE=0, BITS=8, DI=PIN_B5, DO=PIN_B4, CLK=PIN_B2, stream=MIS_FM_STREAM, FORCE_SW)
....................     #use spi(MASTER, BAUD=1000000, MODE=0, BITS=8, DI=PIN_D6, DO=PIN_D7, CLK=PIN_D5, stream=SMF_STREAM, FORCE_SW)
.................... 
.................... #endif
.................... 
.................... // ==========================================
.................... // 2. システムシーケンス コマンド定義
.................... // ==========================================
.................... #define CMD_MISSION_START       0x10
.................... #define RES_MISSION_DONE        0x11
.................... #define CMD_SMF_PREPARE         0x20
.................... #define REQ_SMF_COPY            0x21
.................... #define CMD_SMF_PERMIT          0x22
.................... #define REQ_POWER_OFF           0x30
.................... 
.................... // ==========================================
.................... // 3. データフォーマット・バッファ定義
.................... // ==========================================
.................... #define PACKET_SIZE             64
.................... #define FLASH_PAGE_SIZE         256
.................... #define PACKETS_PER_PAGE        4
.................... #define SMF_TRANSFER_PACKETS    15
.................... 
.................... // ヘッダー構造体 (8Byte)
.................... typedef struct
.................... {
....................     unsigned int32 timestamp;      // 4 Byte
....................     unsigned int8  mode : 3;       // 3 bit
....................     unsigned int8  channel : 1;    // 1 bit
....................     unsigned int8  samplingRate : 4; // 4 bit
....................     unsigned int16 dataCount;      // 12bitではなく16bit(2Byte)で確保しエラーを回避
....................     unsigned int8  zeroFill;       // 1 Byte (合計8Byteにするため)
.................... } PacketHeader;
.................... 
.................... typedef struct
.................... {
....................     PacketHeader header;           // 8 Byte
....................     unsigned int8 packetNum;       // 1 Byte
....................     unsigned int16 adcData[27];    // 54 Byte
....................     unsigned int8 crc8;            // 1 Byte
.................... } FirstPacket;
.................... 
.................... typedef struct
.................... {
....................     unsigned int8 packetNum;       // 1 Byte
....................     unsigned int16 adcData[31];    // 62 Byte
....................     unsigned int8 crc8;            // 1 Byte
.................... } SubsequentPacket;
.................... 
.................... typedef union
.................... {
....................     unsigned int8 raw[PACKET_SIZE];
....................     FirstPacket first;
....................     SubsequentPacket sub;
.................... } PacketBuffer;
.................... 
.................... #endif // son_tmp_CONFIG_H
.................... 
.................... #include "../../../lib/communication/value_status.h"
.................... #ifndef VALUE_STATUS_H
.................... #define VALUE_STATUS_H
.................... 
.................... // there is used in main.c and mission
.................... 
.................... extern unsigned int8 status;
.................... extern int1 is_use_smf_req_in_mission;
.................... 
.................... //volatile int1 is_use_smf_req_in_mission = FALSE;
.................... //volatile int8 status[4] = {IDLE, 0, 0, 0};
.................... 
.................... 
.................... #endif
.................... 
.................... 
.................... #include "../../../lib/communication/typedef_content.h" // Command構造体を使うために追加
.................... #ifndef TYPEDEF_CONTENT_H
.................... #define TYPEDEF_CONTENT_H
.................... 
.................... // there is used in main.c
.................... 
.................... typedef enum {
....................     EXECUTING_MISSION = 0x02,
....................     IDLE              = 0x03,
....................     SMF_USE_REQ       = 0x04,
....................     COPYING           = 0x05,
....................     FINISHED          = 0x06
.................... } MisMcuStatusContent;
.................... 
.................... 
.................... typedef enum {
....................     ALLOW = 0x01,
....................     DENY  = 0x00
.................... } IsSmfAvailableContent;
.................... 
.................... 
.................... #endif
.................... 
.................... 
.................... 
.................... // ============================================================================
.................... // 関数プロトタイプ
.................... // ============================================================================
.................... void cigs_system_init(void);
.................... 
.................... // バッファを直接読むのではなく、解析済みのCommandを引数で受け取るように変更
.................... int1 execute_command(Command* cmd);
.................... 
.................... #endif // SON_TMP_EXCUTE_MISSION_H
.................... 
.................... #include "../application/mission/son_tmp_mode_mission.h"
.................... #ifndef son_tmp_MODE_MISSION_H
.................... #define son_tmp_MODE_MISSION_H
.................... 
.................... #include <stdint.h>
.................... ///////////////////////////////////////////////////////////////////////////
.................... ////                                                                   ////
.................... ////                           stdint.h                                ////
.................... ////                                                                   ////
.................... //// Standard integer definitions.                                     ////
.................... ////                                                                   ////
.................... ///////////////////////////////////////////////////////////////////////////
.................... ////        (C) Copyright 1996,2008 Custom Computer Services           ////
.................... //// This source code may only be used by licensed users of the CCS C  ////
.................... //// compiler.  This source code may only be distributed to other      ////
.................... //// licensed users of the CCS C compiler.  No other use, reproduction ////
.................... //// or distribution is permitted without written permission.          ////
.................... //// Derivative programs created using this software in object code    ////
.................... //// form are not restricted in any way.                               ////
.................... ///////////////////////////////////////////////////////////////////////////
.................... 
.................... #ifndef _STDINT
.................... 
.................... #define _STDINT
.................... 
.................... //////////// exact width
.................... 
.................... typedef signed int8 int8_t;
.................... typedef unsigned int8 uint8_t;
.................... typedef signed int16 int16_t;
.................... typedef unsigned int16 uint16_t;
.................... typedef signed int32 int32_t;
.................... typedef unsigned int32 uint32_t;
.................... 
.................... #if defined(__PCD__)
.................... //typedef signed int24 int24_t;
.................... //typedef unsigned int24 uint24_t;
.................... typedef signed int64 int64_t;
.................... typedef unsigned int64 uint64_t;
.................... #endif
.................... 
.................... #define INT8_MAX  (127)
.................... #define INT8_MIN  (-128)
.................... #define UINT8_MAX (255)
.................... 
.................... #define INT16_MAX  (32767)
.................... #define INT16_MIN  (-32768)
.................... #define UINT16_MAX (65535)
.................... 
.................... #define INT32_MAX  (2147483647)
.................... #define INT32_MIN  (-2147483648)
.................... #define UINT32_MAX (4294967295)
.................... 
.................... #if defined(__PCD__)
.................... //#define INT24_MAX  (8388607)
.................... //#define INT24_MIN  (-8388608)
.................... //#define UINT24_MAX (16777215)
.................... 
.................... #define INT64_MAX  (9223372036854775807)
.................... #define INT64_MIN  (-9223372036854775808)
.................... #define UINT64_MAX (18446744073709551615)
.................... #endif
.................... 
.................... ///////// minimum width
.................... 
.................... typedef signed int8 int_least8_t;
.................... typedef unsigned int8 uint_least8_t;
.................... typedef signed int16 int_least16_t;
.................... typedef unsigned int16 uint_least16_t;
.................... typedef signed int32 int_least32_t;
.................... typedef unsigned int32 uint_least32_t;
.................... 
.................... #if defined(__PCD__)
.................... //typedef signed int24 int_least24_t;
.................... //typedef unsigned int24 uint_least24_t;
.................... typedef signed int64 int_least64_t;
.................... typedef unsigned int64 uint_least64_t;
.................... #endif
.................... 
.................... #define INT_LEAST8_MAX  (127)
.................... #define INT_LEAST8_MIN  (-128)
.................... #define UINT_LEAST8_MAX (255)
.................... 
.................... #define INT_LEAST16_MAX  (32767)
.................... #define INT_LEAST16_MIN  (-32768)
.................... #define UINT_LEAST16_MAX (65535)
.................... 
.................... #define INT_LEAST32_MAX  (2147483647)
.................... #define INT_LEAST32_MIN  (-2147483648)
.................... #define UINT_LEAST32_MAX (4294967295)
.................... 
.................... #if defined(__PCD__)
.................... //#define INT_LEAST24_MAX  (8388607)
.................... //#define INT_LEAST24_MIN  (-8388608)
.................... //#define UINT_LEAST24_MAX (16777215)
.................... 
.................... #define INT_LEAST64_MAX  (9223372036854775807)
.................... #define INT_LEAST64_MIN  (-9223372036854775808)
.................... #define UINT_LEAST64_MAX (18446744073709551615)
.................... #endif
.................... 
.................... ///////// fastest width
.................... 
.................... #if defined(__PCD__)
.................... typedef signed int16 int_fast8_t;
.................... typedef unsigned int16 uint_fast8_t;
.................... #define INT_FAST8_MAX  (32767)
.................... #define INT_FAST8_MIN  (-32768)
.................... #define UINT_FAST8_MAX (65535)
.................... typedef signed int16 int_fast16_t;
.................... typedef unsigned int16 uint_fast16_t;
.................... //typedef signed int24 int_fast24_t;
.................... //typedef unsigned int24 uint_fast24_t;
.................... typedef signed int64 int_fast64_t;
.................... typedef unsigned int64 uint_fast64_t;
.................... #else
.................... typedef signed int8 int_fast8_t;
.................... typedef unsigned int8 uint_fast8_t;
.................... #define INT_FAST8_MAX  (127)
.................... #define INT_FAST8_MIN  (-128)
.................... #define UINT_FAST8_MAX (255)
.................... typedef signed int16 int_fast16_t;
.................... typedef unsigned int16 uint_fast16_t;
.................... #endif
.................... 
.................... typedef signed int32 int_fast32_t;
.................... typedef unsigned int32 uint_fast32_t;
.................... 
.................... #define INT_FAST16_MAX  (32767)
.................... #define INT_FAST16_MIN  (-32768)
.................... #define UINT_FAST16_MAX (65535)
.................... 
.................... #define INT_FAST32_MAX  (2147483647)
.................... #define INT_FAST32_MIN  (-2147483648)
.................... #define UINT_FAST32_MAX (4294967295)
.................... 
.................... #if defined(__PCD__)
.................... //#define INT_FAST24_MAX  (8388607)
.................... //#define INT_FAST24_MIN  (-8388608)
.................... //#define UINT_FAST24_MAX (16777215)
.................... 
.................... #define INT_FAST64_MAX  (9223372036854775807)
.................... #define INT_FAST64_MIN  (-9223372036854775808)
.................... #define UINT_FAST64_MAX (18446744073709551615)
.................... #endif
.................... 
.................... //////////// big enough to hold pointers (OPTIONAL)
.................... 
.................... #if defined(__PCD__)
....................    typedef unsigned int32 uintptr_t;
....................    typedef signed int32 intptr_t;
.................... #else
....................    typedef unsigned int16 uintptr_t;
....................    typedef signed int16 intptr_t;
.................... #endif
.................... 
.................... #define INT8_C(val) ((int8_t)val)
.................... #define UINT8_C(val) ((uint8_t)val)
.................... #define INT16_C(val) ((int16_t)val)
.................... #define UINT16_C(val) ((uint16_t)val)
.................... #define INT32_C(val) ((int32_t)val)
.................... #define UINT32_C(val) ((uint32_t)val)
.................... 
.................... #if defined(__PCD__)
.................... #define INT64_C(val) ((int64_t)val)
.................... #define UINT64_C(val) ((uint64_t)val)
.................... #endif
.................... 
.................... /// TODO:
.................... /// INTPTRN_MIN INTPTRN_MAX UINTPTRN_MAX
.................... 
.................... 
.................... /////////// greatest width (OPTIONAL)
.................... 
.................... #ifdef __PCD__
....................    typedef signed int64 intmax_t;
....................    typedef unsigned int64 uintmax_t;
....................    
....................    #define INTMAXN_MAX  (9223372036854775807)
....................    #define INTMAXN_MIN  (-9223372036854775808)
....................    #define UINTMAXN_MAX (18446744073709551615)
....................    
....................    #define INTMAX_C(value) ((signed int64)val)
....................    #define UINTMAX_C(value) ((unsigned int64)val)
.................... #else
....................    typedef signed int32 intmax_t;
....................    typedef unsigned int32 uintmax_t;
....................    
....................    #define INTMAXN_MAX  (2147483647)
....................    #define INTMAXN_MIN  (-2147483648)
....................    #define UINTMAXN_MAX (4294967295)
....................    
....................    #define INTMAX_C(value) ((signed int32)val)
....................    #define UINTMAX_C(value) ((unsigned int32)val)
.................... #endif
.................... 
.................... 
.................... #endif
.................... 
.................... 
.................... #include "../../system/son_tmp_config.h"
.................... #ifndef son_tmp_CONFIG_H
.................... #define son_tmp_CONFIG_H
.................... 
.................... #define SELF_DEVICE_ID CIGS_PIC
.................... 
.................... #include <18F67J94.h>
.................... #opt 0 // 0 = no optimization
.................... 
.................... #use delay(crystal=16MHz)
.................... #fuses HS, NOWDT, NOBROWNOUT, NOPROTECT
.................... 
.................... #define PIC18
.................... 
.................... #ifdef PIC18
....................     // ==========================================
....................     // 1. ハードウェア構成とピンアサイン
....................     // ==========================================
.................... 
....................     #define PIN_LDO_EN          PIN_E1
....................     #define PIN_VREF_EN         PIN_E0
....................     #define PIN_LED1            PIN_A5
....................     #define PIN_LED2            PIN_A1
.................... 
....................     #define PIN_SW_DIO1         PIN_C1
....................     #define PIN_SW_DIO0         PIN_C2
.................... 
....................     // SPI Chip Select (BOSSヘッダ名称に適合)
....................     #define MIS_FM_CS           PIN_B1
....................     #define SMF_CS              PIN_D4
....................     #define PIN_CS_ADC          PIN_B3
.................... 
.................... // ------------------------------------------
....................     // UART 通信設定
....................     // ------------------------------------------
....................     #use rs232(baud=9600, parity=N, xmit=PIN_G0, bits=8, stream=PC, FORCE_SW, ERRORS)
.................... 
....................     // BOSS側: D1/D0ピンにハードウェアUART3を割り当てて使用する
....................     #pin_select TX3=PIN_D1
....................     #pin_select RX3=PIN_D0
....................     #use rs232(baud=9600, parity=N, UART3, bits=8, stream=BOSS, ERRORS)
.................... 
....................     // ------------------------------------------
....................     // SPI 通信設定
....................     // ------------------------------------------
....................     #use spi(MASTER, BAUD=1000000, MODE=0, BITS=8, DI=PIN_B5, DO=PIN_B4, CLK=PIN_B2, stream=MIS_FM_STREAM, FORCE_SW)
....................     #use spi(MASTER, BAUD=1000000, MODE=0, BITS=8, DI=PIN_D6, DO=PIN_D7, CLK=PIN_D5, stream=SMF_STREAM, FORCE_SW)
.................... 
.................... #endif
.................... 
.................... // ==========================================
.................... // 2. システムシーケンス コマンド定義
.................... // ==========================================
.................... #define CMD_MISSION_START       0x10
.................... #define RES_MISSION_DONE        0x11
.................... #define CMD_SMF_PREPARE         0x20
.................... #define REQ_SMF_COPY            0x21
.................... #define CMD_SMF_PERMIT          0x22
.................... #define REQ_POWER_OFF           0x30
.................... 
.................... // ==========================================
.................... // 3. データフォーマット・バッファ定義
.................... // ==========================================
.................... #define PACKET_SIZE             64
.................... #define FLASH_PAGE_SIZE         256
.................... #define PACKETS_PER_PAGE        4
.................... #define SMF_TRANSFER_PACKETS    15
.................... 
.................... // ヘッダー構造体 (8Byte)
.................... typedef struct
.................... {
....................     unsigned int32 timestamp;      // 4 Byte
....................     unsigned int8  mode : 3;       // 3 bit
....................     unsigned int8  channel : 1;    // 1 bit
....................     unsigned int8  samplingRate : 4; // 4 bit
....................     unsigned int16 dataCount;      // 12bitではなく16bit(2Byte)で確保しエラーを回避
....................     unsigned int8  zeroFill;       // 1 Byte (合計8Byteにするため)
.................... } PacketHeader;
.................... 
.................... typedef struct
.................... {
....................     PacketHeader header;           // 8 Byte
....................     unsigned int8 packetNum;       // 1 Byte
....................     unsigned int16 adcData[27];    // 54 Byte
....................     unsigned int8 crc8;            // 1 Byte
.................... } FirstPacket;
.................... 
.................... typedef struct
.................... {
....................     unsigned int8 packetNum;       // 1 Byte
....................     unsigned int16 adcData[31];    // 62 Byte
....................     unsigned int8 crc8;            // 1 Byte
.................... } SubsequentPacket;
.................... 
.................... typedef union
.................... {
....................     unsigned int8 raw[PACKET_SIZE];
....................     FirstPacket first;
....................     SubsequentPacket sub;
.................... } PacketBuffer;
.................... 
.................... #endif // son_tmp_CONFIG_H
.................... 
.................... 
.................... // ============================================================================
.................... // 外部公開関数プロトタイプ
.................... // ============================================================================
.................... 
.................... // ミッションの全体シーケンスを実行する
.................... // ここから core/measurement/son_tmp_strain.c の計測関数を呼び出す
.................... void execute_mission_sequence(void);
.................... 
.................... #endif // son_tmp_MODE_MISSION_H
.................... 
.................... #include "../application/mission/son_tmp_mode_flash.h"
.................... #ifndef son_tmp_MODE_FLASH_H
.................... #define son_tmp_MODE_FLASH_H
.................... 
.................... #include <stdint.h>
.................... ///////////////////////////////////////////////////////////////////////////
.................... ////                                                                   ////
.................... ////                           stdint.h                                ////
.................... ////                                                                   ////
.................... //// Standard integer definitions.                                     ////
.................... ////                                                                   ////
.................... ///////////////////////////////////////////////////////////////////////////
.................... ////        (C) Copyright 1996,2008 Custom Computer Services           ////
.................... //// This source code may only be used by licensed users of the CCS C  ////
.................... //// compiler.  This source code may only be distributed to other      ////
.................... //// licensed users of the CCS C compiler.  No other use, reproduction ////
.................... //// or distribution is permitted without written permission.          ////
.................... //// Derivative programs created using this software in object code    ////
.................... //// form are not restricted in any way.                               ////
.................... ///////////////////////////////////////////////////////////////////////////
.................... 
.................... #ifndef _STDINT
.................... 
.................... #define _STDINT
.................... 
.................... //////////// exact width
.................... 
.................... typedef signed int8 int8_t;
.................... typedef unsigned int8 uint8_t;
.................... typedef signed int16 int16_t;
.................... typedef unsigned int16 uint16_t;
.................... typedef signed int32 int32_t;
.................... typedef unsigned int32 uint32_t;
.................... 
.................... #if defined(__PCD__)
.................... //typedef signed int24 int24_t;
.................... //typedef unsigned int24 uint24_t;
.................... typedef signed int64 int64_t;
.................... typedef unsigned int64 uint64_t;
.................... #endif
.................... 
.................... #define INT8_MAX  (127)
.................... #define INT8_MIN  (-128)
.................... #define UINT8_MAX (255)
.................... 
.................... #define INT16_MAX  (32767)
.................... #define INT16_MIN  (-32768)
.................... #define UINT16_MAX (65535)
.................... 
.................... #define INT32_MAX  (2147483647)
.................... #define INT32_MIN  (-2147483648)
.................... #define UINT32_MAX (4294967295)
.................... 
.................... #if defined(__PCD__)
.................... //#define INT24_MAX  (8388607)
.................... //#define INT24_MIN  (-8388608)
.................... //#define UINT24_MAX (16777215)
.................... 
.................... #define INT64_MAX  (9223372036854775807)
.................... #define INT64_MIN  (-9223372036854775808)
.................... #define UINT64_MAX (18446744073709551615)
.................... #endif
.................... 
.................... ///////// minimum width
.................... 
.................... typedef signed int8 int_least8_t;
.................... typedef unsigned int8 uint_least8_t;
.................... typedef signed int16 int_least16_t;
.................... typedef unsigned int16 uint_least16_t;
.................... typedef signed int32 int_least32_t;
.................... typedef unsigned int32 uint_least32_t;
.................... 
.................... #if defined(__PCD__)
.................... //typedef signed int24 int_least24_t;
.................... //typedef unsigned int24 uint_least24_t;
.................... typedef signed int64 int_least64_t;
.................... typedef unsigned int64 uint_least64_t;
.................... #endif
.................... 
.................... #define INT_LEAST8_MAX  (127)
.................... #define INT_LEAST8_MIN  (-128)
.................... #define UINT_LEAST8_MAX (255)
.................... 
.................... #define INT_LEAST16_MAX  (32767)
.................... #define INT_LEAST16_MIN  (-32768)
.................... #define UINT_LEAST16_MAX (65535)
.................... 
.................... #define INT_LEAST32_MAX  (2147483647)
.................... #define INT_LEAST32_MIN  (-2147483648)
.................... #define UINT_LEAST32_MAX (4294967295)
.................... 
.................... #if defined(__PCD__)
.................... //#define INT_LEAST24_MAX  (8388607)
.................... //#define INT_LEAST24_MIN  (-8388608)
.................... //#define UINT_LEAST24_MAX (16777215)
.................... 
.................... #define INT_LEAST64_MAX  (9223372036854775807)
.................... #define INT_LEAST64_MIN  (-9223372036854775808)
.................... #define UINT_LEAST64_MAX (18446744073709551615)
.................... #endif
.................... 
.................... ///////// fastest width
.................... 
.................... #if defined(__PCD__)
.................... typedef signed int16 int_fast8_t;
.................... typedef unsigned int16 uint_fast8_t;
.................... #define INT_FAST8_MAX  (32767)
.................... #define INT_FAST8_MIN  (-32768)
.................... #define UINT_FAST8_MAX (65535)
.................... typedef signed int16 int_fast16_t;
.................... typedef unsigned int16 uint_fast16_t;
.................... //typedef signed int24 int_fast24_t;
.................... //typedef unsigned int24 uint_fast24_t;
.................... typedef signed int64 int_fast64_t;
.................... typedef unsigned int64 uint_fast64_t;
.................... #else
.................... typedef signed int8 int_fast8_t;
.................... typedef unsigned int8 uint_fast8_t;
.................... #define INT_FAST8_MAX  (127)
.................... #define INT_FAST8_MIN  (-128)
.................... #define UINT_FAST8_MAX (255)
.................... typedef signed int16 int_fast16_t;
.................... typedef unsigned int16 uint_fast16_t;
.................... #endif
.................... 
.................... typedef signed int32 int_fast32_t;
.................... typedef unsigned int32 uint_fast32_t;
.................... 
.................... #define INT_FAST16_MAX  (32767)
.................... #define INT_FAST16_MIN  (-32768)
.................... #define UINT_FAST16_MAX (65535)
.................... 
.................... #define INT_FAST32_MAX  (2147483647)
.................... #define INT_FAST32_MIN  (-2147483648)
.................... #define UINT_FAST32_MAX (4294967295)
.................... 
.................... #if defined(__PCD__)
.................... //#define INT_FAST24_MAX  (8388607)
.................... //#define INT_FAST24_MIN  (-8388608)
.................... //#define UINT_FAST24_MAX (16777215)
.................... 
.................... #define INT_FAST64_MAX  (9223372036854775807)
.................... #define INT_FAST64_MIN  (-9223372036854775808)
.................... #define UINT_FAST64_MAX (18446744073709551615)
.................... #endif
.................... 
.................... //////////// big enough to hold pointers (OPTIONAL)
.................... 
.................... #if defined(__PCD__)
....................    typedef unsigned int32 uintptr_t;
....................    typedef signed int32 intptr_t;
.................... #else
....................    typedef unsigned int16 uintptr_t;
....................    typedef signed int16 intptr_t;
.................... #endif
.................... 
.................... #define INT8_C(val) ((int8_t)val)
.................... #define UINT8_C(val) ((uint8_t)val)
.................... #define INT16_C(val) ((int16_t)val)
.................... #define UINT16_C(val) ((uint16_t)val)
.................... #define INT32_C(val) ((int32_t)val)
.................... #define UINT32_C(val) ((uint32_t)val)
.................... 
.................... #if defined(__PCD__)
.................... #define INT64_C(val) ((int64_t)val)
.................... #define UINT64_C(val) ((uint64_t)val)
.................... #endif
.................... 
.................... /// TODO:
.................... /// INTPTRN_MIN INTPTRN_MAX UINTPTRN_MAX
.................... 
.................... 
.................... /////////// greatest width (OPTIONAL)
.................... 
.................... #ifdef __PCD__
....................    typedef signed int64 intmax_t;
....................    typedef unsigned int64 uintmax_t;
....................    
....................    #define INTMAXN_MAX  (9223372036854775807)
....................    #define INTMAXN_MIN  (-9223372036854775808)
....................    #define UINTMAXN_MAX (18446744073709551615)
....................    
....................    #define INTMAX_C(value) ((signed int64)val)
....................    #define UINTMAX_C(value) ((unsigned int64)val)
.................... #else
....................    typedef signed int32 intmax_t;
....................    typedef unsigned int32 uintmax_t;
....................    
....................    #define INTMAXN_MAX  (2147483647)
....................    #define INTMAXN_MIN  (-2147483648)
....................    #define UINTMAXN_MAX (4294967295)
....................    
....................    #define INTMAX_C(value) ((signed int32)val)
....................    #define UINTMAX_C(value) ((unsigned int32)val)
.................... #endif
.................... 
.................... 
.................... #endif
.................... 
.................... 
.................... #include "../../system/son_tmp_config.h"
.................... #ifndef son_tmp_CONFIG_H
.................... #define son_tmp_CONFIG_H
.................... 
.................... #define SELF_DEVICE_ID CIGS_PIC
.................... 
.................... #include <18F67J94.h>
.................... #opt 0 // 0 = no optimization
.................... 
.................... #use delay(crystal=16MHz)
.................... #fuses HS, NOWDT, NOBROWNOUT, NOPROTECT
.................... 
.................... #define PIC18
.................... 
.................... #ifdef PIC18
....................     // ==========================================
....................     // 1. ハードウェア構成とピンアサイン
....................     // ==========================================
.................... 
....................     #define PIN_LDO_EN          PIN_E1
....................     #define PIN_VREF_EN         PIN_E0
....................     #define PIN_LED1            PIN_A5
....................     #define PIN_LED2            PIN_A1
.................... 
....................     #define PIN_SW_DIO1         PIN_C1
....................     #define PIN_SW_DIO0         PIN_C2
.................... 
....................     // SPI Chip Select (BOSSヘッダ名称に適合)
....................     #define MIS_FM_CS           PIN_B1
....................     #define SMF_CS              PIN_D4
....................     #define PIN_CS_ADC          PIN_B3
.................... 
.................... // ------------------------------------------
....................     // UART 通信設定
....................     // ------------------------------------------
....................     #use rs232(baud=9600, parity=N, xmit=PIN_G0, bits=8, stream=PC, FORCE_SW, ERRORS)
.................... 
....................     // BOSS側: D1/D0ピンにハードウェアUART3を割り当てて使用する
....................     #pin_select TX3=PIN_D1
....................     #pin_select RX3=PIN_D0
....................     #use rs232(baud=9600, parity=N, UART3, bits=8, stream=BOSS, ERRORS)
.................... 
....................     // ------------------------------------------
....................     // SPI 通信設定
....................     // ------------------------------------------
....................     #use spi(MASTER, BAUD=1000000, MODE=0, BITS=8, DI=PIN_B5, DO=PIN_B4, CLK=PIN_B2, stream=MIS_FM_STREAM, FORCE_SW)
....................     #use spi(MASTER, BAUD=1000000, MODE=0, BITS=8, DI=PIN_D6, DO=PIN_D7, CLK=PIN_D5, stream=SMF_STREAM, FORCE_SW)
.................... 
.................... #endif
.................... 
.................... // ==========================================
.................... // 2. システムシーケンス コマンド定義
.................... // ==========================================
.................... #define CMD_MISSION_START       0x10
.................... #define RES_MISSION_DONE        0x11
.................... #define CMD_SMF_PREPARE         0x20
.................... #define REQ_SMF_COPY            0x21
.................... #define CMD_SMF_PERMIT          0x22
.................... #define REQ_POWER_OFF           0x30
.................... 
.................... // ==========================================
.................... // 3. データフォーマット・バッファ定義
.................... // ==========================================
.................... #define PACKET_SIZE             64
.................... #define FLASH_PAGE_SIZE         256
.................... #define PACKETS_PER_PAGE        4
.................... #define SMF_TRANSFER_PACKETS    15
.................... 
.................... // ヘッダー構造体 (8Byte)
.................... typedef struct
.................... {
....................     unsigned int32 timestamp;      // 4 Byte
....................     unsigned int8  mode : 3;       // 3 bit
....................     unsigned int8  channel : 1;    // 1 bit
....................     unsigned int8  samplingRate : 4; // 4 bit
....................     unsigned int16 dataCount;      // 12bitではなく16bit(2Byte)で確保しエラーを回避
....................     unsigned int8  zeroFill;       // 1 Byte (合計8Byteにするため)
.................... } PacketHeader;
.................... 
.................... typedef struct
.................... {
....................     PacketHeader header;           // 8 Byte
....................     unsigned int8 packetNum;       // 1 Byte
....................     unsigned int16 adcData[27];    // 54 Byte
....................     unsigned int8 crc8;            // 1 Byte
.................... } FirstPacket;
.................... 
.................... typedef struct
.................... {
....................     unsigned int8 packetNum;       // 1 Byte
....................     unsigned int16 adcData[31];    // 62 Byte
....................     unsigned int8 crc8;            // 1 Byte
.................... } SubsequentPacket;
.................... 
.................... typedef union
.................... {
....................     unsigned int8 raw[PACKET_SIZE];
....................     FirstPacket first;
....................     SubsequentPacket sub;
.................... } PacketBuffer;
.................... 
.................... #endif // son_tmp_CONFIG_H
.................... 
.................... 
.................... // ============================================================================
.................... // 外部公開関数プロトタイプ
.................... // ============================================================================
.................... 
.................... // SMF転送準備 (CMD_SMF_PREPARE 受信時に実行)
.................... void prepare_smf_transfer(void);
.................... 
.................... // SMFデータ転送実行 (REQ_SMF_COPY 受信時に実行)
.................... void execute_smf_transfer(void);
.................... 
.................... // SMF転送完了許可 (CMD_SMF_PERMIT 受信時に実行)
.................... void permit_smf_transfer(void);
.................... 
.................... #endif // son_tmp_MODE_FLASH_H
.................... 
.................... 
.................... 
.................... //==============================================================================
.................... // .cファイル統合（CCS C単一コンパイル単位）
.................... //==============================================================================
.................... 
.................... // ハードウェア層実装ファイル
.................... #include "../hardware/mcu/src/timer.c"
.................... // 一つ上の階層にある timer.h をインクルード
.................... #include "../timer.h"
.................... #ifndef TIMER_H
.................... #define TIMER_H
.................... 
.................... #include <stdint.h>
.................... 
.................... // __________ values _________
.................... 
.................... // パケットヘッダーの timestamp で使用するための秒カウンタ
.................... extern volatile uint32_t sec;
.................... 
.................... 
.................... // __________ functions _________
.................... uint32_t get_current_sec();
.................... void set_current_sec(uint32_t new_sec);
.................... void setup_timer();
.................... 
.................... #INT_TIMER1
.................... void TIMER1_isr();
.................... 
.................... #endif
.................... 
.................... 
.................... volatile uint32_t sec = 0;
.................... volatile uint8_t timer_tick_100ms = 0;
.................... 
.................... #INT_TIMER1
.................... void TIMER1_isr()
.................... {
....................     set_timer1(15536);
*
000BE:  MOVLW  3C
000C0:  MOVWF  FCF
000C2:  MOVLW  B0
000C4:  MOVWF  FCE
000C6:  NOP   
....................     timer_tick_100ms++;
000C8:  MOVLB  1
000CA:  INCF   x41,F
.................... 
....................     if (timer_tick_100ms >= 10)
000CC:  MOVF   x41,W
000CE:  SUBLW  09
000D0:  BTFSS  FD8.0
000D2:  BRA    00DA
000D4:  MOVLB  0
000D6:  GOTO   00F2
000DA:  MOVLB  0
....................     {
....................         timer_tick_100ms = 0;
000DC:  MOVLB  1
000DE:  CLRF   x41
....................         sec++;
000E0:  MOVLW  01
000E2:  ADDWF  1C,F
000E4:  BTFSC  FD8.0
000E6:  INCF   1D,F
000E8:  BTFSC  FD8.2
000EA:  INCF   1E,F
000EC:  BTFSC  FD8.2
000EE:  INCF   1F,F
000F0:  MOVLB  0
....................     }
000F2:  BCF    F9E.0
000F4:  GOTO   0068
.................... }
.................... 
.................... void setup_timer()
.................... {
....................     fprintf(PC, "Timer Initialize (16MHz Main Clock Base)\r\n");
*
00B6A:  MOVLW  F8
00B6C:  MOVWF  FF6
00B6E:  MOVLW  00
00B70:  MOVWF  FF7
00B72:  MOVLW  00
00B74:  MOVWF  FF8
00B76:  CALL   0A42
....................     clear_interrupt(INT_TIMER1);
00B7A:  BCF    F9E.0
.................... 
....................     setup_timer_1(T1_INTERNAL | T1_DIV_BY_8);
00B7C:  MOVLW  37
00B7E:  MOVWF  FCD
00B80:  CLRF   FAA
....................     set_timer1(15536);
00B82:  MOVLW  3C
00B84:  MOVWF  FCF
00B86:  MOVLW  B0
00B88:  MOVWF  FCE
00B8A:  NOP   
.................... 
....................     timer_tick_100ms = 0;
00B8C:  MOVLB  1
00B8E:  CLRF   x41
.................... 
....................     enable_interrupts(INT_TIMER1);
00B90:  BSF    F9D.0
....................     enable_interrupts(GLOBAL);
00B92:  MOVLW  C0
00B94:  IORWF  FF2,F
.................... 
....................     fprintf(PC, "\tComplete\r\n");
00B96:  MOVLW  24
00B98:  MOVWF  FF6
00B9A:  MOVLW  01
00B9C:  MOVWF  FF7
00B9E:  MOVLW  00
00BA0:  MOVWF  FF8
00BA2:  MOVLB  0
00BA4:  CALL   0A42
00BA8:  GOTO   3CC2 (RETURN)
.................... }
.................... 
.................... void set_current_sec(uint32_t new_sec)
.................... {
....................     sec = new_sec;
.................... }
.................... 
.................... uint32_t get_current_sec()
.................... {
....................     return sec;
*
013A8:  MOVFF  1C,00
013AC:  MOVFF  1D,01
013B0:  MOVFF  1E,02
013B4:  MOVFF  1F,03
013B8:  RETURN 0
.................... }
.................... 
.................... #include "../hardware/mcu/src/uart.c"
.................... #INT_RDA3
.................... volatile unsigned int8 boss_receive_buffer[RECEIVE_BUFFER_MAX] = {0x00};
.................... volatile int8 boss_receive_buffer_size = 0;
.................... 
.................... /*/
.................... static void RDA_isr(void)
.................... {
....................     // ハードウェアがデータを受信した瞬間に自動で呼ばれる
....................     if (boss_receive_buffer_size < RECEIVE_BUFFER_MAX)
....................     {
....................         boss_receive_buffer[boss_receive_buffer_size] = fgetc(BOSS);
....................         boss_receive_buffer_size++;
....................     }
....................     else
....................     {
....................         fgetc(BOSS); // バッファ満杯時は捨てる
....................     }
.................... }
.................... */
.................... 
.................... void setup_uart_to_boss()
.................... {
....................     fprintf(PC, "UART Initialize\r\n");
*
00B46:  MOVLW  30
00B48:  MOVWF  FF6
00B4A:  MOVLW  01
00B4C:  MOVWF  FF7
00B4E:  MOVLW  00
00B50:  MOVWF  FF8
00B52:  CALL   0A42
....................     //enable_interrupts(INT_RDA3);
....................     //enable_interrupts(GLOBAL);
....................     fprintf(PC, "\tComplete\r\n");
00B56:  MOVLW  42
00B58:  MOVWF  FF6
00B5A:  MOVLW  01
00B5C:  MOVWF  FF7
00B5E:  MOVLW  00
00B60:  MOVWF  FF8
00B62:  CALL   0A42
00B66:  GOTO   3CBE (RETURN)
.................... }
.................... 
.................... 
.................... 
.................... void clear_receive_signal(unsigned int8 receive_signal[], int8 *receive_signal_size)
.................... {
....................     memset(receive_signal, 0x00, *receive_signal_size);
*
027CC:  MOVFF  167,03
027D0:  MOVLB  1
027D2:  MOVF   x66,W
027D4:  MOVWF  FE9
027D6:  MOVFF  03,FEA
027DA:  MOVFF  FEF,168
027DE:  MOVFF  165,FEA
027E2:  MOVFF  164,FE9
027E6:  CLRF   00
027E8:  CLRF   02
027EA:  MOVFF  168,01
027EE:  MOVLB  0
027F0:  CALL   0FBC
....................     *receive_signal_size = 0;
027F4:  MOVFF  167,03
027F8:  MOVLB  1
027FA:  MOVF   x66,W
027FC:  MOVWF  FE9
027FE:  MOVFF  03,FEA
02802:  CLRF   FEF
02804:  MOVLB  0
02806:  GOTO   3EF8 (RETURN)
.................... }
.................... // End of file
.................... 
.................... 
.................... // ライブラリ実装ファイル
.................... #include "../../lib/device/mt25q.c"
.................... #include "mt25q.h"  // ヘッダーファイルから自動的にインクルードされるため不要
.................... #ifndef MT25Q_H
.................... #define MT25Q_H
.................... 
.................... // =========
.................... //#define MT25Q_DEBUG
.................... // =========
.................... 
.................... 
.................... #define FLASH_STREAM0 MIS_FM_STREAM     // <- Align the names to `config.h` Stream name
.................... #define FLASH_STREAM1 SMF_STREAM
.................... #define FLASH_STREAM2 SMF_STREAM // dont use
.................... #define FLASH_STREAM3 SMF_STREAM // dont use
.................... 
.................... typedef enum spi_stream{
....................     SPI_0,
....................     SPI_1,
....................     SPI_2,
....................     SPI_3,
.................... }SpiStreamId;
.................... 
.................... #define MT25QL128ABA 0x00     //Mission Flash
.................... #define MT25QL01GBBB 0x01     //SMF,CF
.................... typedef struct select_stream_to_flash{
....................     SpiStreamId spi_stream_id;
....................     unsigned int8 flash_model;
....................     int16 cs_pin;
.................... }Flash;
.................... 
.................... 
.................... Flash mis_fm = {SPI_0, MT25QL128ABA, MIS_FM_CS};
.................... Flash smf = {SPI_1, MT25QL01GBBB, SMF_CS};
.................... 
.................... 
.................... 
.................... // ===================== Function List =====================
.................... // Public Functions
.................... 
.................... int1 is_connect(Flash flash_stream);
.................... 
.................... void write_data_bytes(Flash flash_stream, unsigned int32 write_start_address, int8 *write_data, unsigned int16 write_amount);      
.................... 
.................... void read_data_bytes(Flash flash_stream, unsigned int32 read_start_address, int8 *read_data, unsigned int32 read_amount);  
.................... 
.................... void sector_erase(Flash flash_stream, unsigned int32 sector_address);
.................... 
.................... void subsector_32kByte_erase(Flash flash_stream, unsigned int32 subsector_address);  
....................                                
.................... void subsector_4kByte_erase(Flash flash_stream, unsigned int32 subsector_address);      
.................... 
.................... //Private Functions
....................  
.................... void flash_setting(Flash flash_stream);
....................  
.................... int8 status_register(Flash flash_stream);
....................  
.................... int8 read_id(Flash flash_stream);
....................  
.................... int8 read_data_byte(Flash flash_stream, unsigned int32 read_address);                                               
....................  
.................... void write_data_byte(Flash flash_stream, unsigned int32 write_address,int8 write_data);                             
....................         //
.................... 
.................... 
.................... // ===================== Flash Commands =====================
.................... #define CMD_READ_ID                     0x9F
.................... #define CMD_READ_STATUS_REGISTER        0x05
.................... #define CMD_READ                        0x03//for MT25QL128ABA
.................... #define CMD_4BYTE_READ                  0x13//for MT25QL01GBBB
.................... #define CMD_WRITE_ENABLE                0x06
.................... #define CMD_PAGE_PROGRAM                0x02//for MT25QL128ABA
.................... #define CMD_4BYTE_PAGE_PROGRAM          0x12//for MT25QL01GBBB
.................... #define CMD_SUBSECTOR_4KB_ERASE         0x20//for MT25QL128ABA
.................... #define CMD_4BYTE_SUBSECTOR_4KB_ERASE   0x21//for MT25QL01GBBB
.................... #define CMD_SUBSECTOR_32KB_ERASE        0x52//for MT25QL128ABA
.................... #define CMD_4BYTE_SUBSECTOR_32KB_ERASE  0x5C//for MT25QL01GBBB
.................... #define CMD_SECTOR_ERASE                0xD8//for MT25QL128ABA
.................... #define CMD_4BYTE_SECTOR_ERASE          0xDC//for MT25QL01GBBB
.................... 
.................... // ====================== Value List =====================
.................... #define MANUFACTURER_ID_MICRON 0x20 // Manufacturer ID for Micron flash
.................... #define READ_ID_DATASIZE 20 // 20 bytes for read ID data
.................... 
.................... 
.................... // ====================== Data Structures =====================
.................... typedef union
.................... {
....................     unsigned int8 bytes[READ_ID_DATASIZE]; // 20 bytes for read ID
....................     struct {
....................         unsigned int8 manufacturer_id; // 1 byte
....................         unsigned int8 memory_type;     // 1 byte
....................         unsigned int8 capacity;        // 1 byte
....................         unsigned int8 reserved;       // 1 byte
....................     } fields;
.................... }READ_ID_DATA;
.................... 
.................... 
.................... #endif
.................... 
.................... 
.................... 
.................... 
.................... 
.................... 
.................... //send multi bytes
.................... void spi_xfer_select_stream(Flash flash_stream, int8 *write_data, unsigned int16 write_amount){
....................    switch(flash_stream.spi_stream_id){
*
0142A:  MOVLB  2
0142C:  MOVF   x24,W
0142E:  XORLW  00
01430:  MOVLB  0
01432:  BTFSC  FD8.2
01434:  GOTO   1444
01438:  XORLW  01
0143A:  BTFSC  FD8.2
0143C:  GOTO   14AC
01440:  GOTO   1514
....................       case SPI_0:
....................          for(unsigned int16 spi_xfer_num = 0;spi_xfer_num < write_amount;spi_xfer_num++)
01444:  MOVLB  2
01446:  CLRF   x2D
01448:  CLRF   x2C
0144A:  MOVLB  0
0144C:  MOVLB  2
0144E:  MOVF   x2D,W
01450:  SUBWF  x2B,W
01452:  BTFSC  FD8.0
01454:  BRA    145C
01456:  MOVLB  0
01458:  GOTO   14A8
0145C:  MOVLB  0
0145E:  BTFSS  FD8.2
01460:  GOTO   1476
01464:  MOVLB  2
01466:  MOVF   x2A,W
01468:  SUBWF  x2C,W
0146A:  BTFSS  FD8.0
0146C:  BRA    1474
0146E:  MOVLB  0
01470:  GOTO   14A8
01474:  MOVLB  0
....................             spi_xfer(FLASH_STREAM0,write_data[spi_xfer_num]);
01476:  MOVLB  2
01478:  MOVF   x28,W
0147A:  ADDWF  x2C,W
0147C:  MOVWF  FE9
0147E:  MOVF   x29,W
01480:  ADDWFC x2D,W
01482:  MOVWF  FEA
01484:  MOVFF  FEF,230
01488:  MOVFF  230,246
0148C:  MOVLW  08
0148E:  MOVWF  x47
01490:  MOVLW  01
01492:  MOVWF  x48
01494:  MOVLB  0
01496:  CALL   0C00
0149A:  MOVLB  2
0149C:  INCF   x2C,F
0149E:  BTFSC  FD8.2
014A0:  INCF   x2D,F
014A2:  MOVLB  0
014A4:  GOTO   144C
....................          break;
014A8:  GOTO   1518
....................          
....................       case SPI_1:
....................          for(unsigned int16 spi_xfer_num = 0;spi_xfer_num < write_amount;spi_xfer_num++)
014AC:  MOVLB  2
014AE:  CLRF   x2F
014B0:  CLRF   x2E
014B2:  MOVLB  0
014B4:  MOVLB  2
014B6:  MOVF   x2F,W
014B8:  SUBWF  x2B,W
014BA:  BTFSC  FD8.0
014BC:  BRA    14C4
014BE:  MOVLB  0
014C0:  GOTO   1510
014C4:  MOVLB  0
014C6:  BTFSS  FD8.2
014C8:  GOTO   14DE
014CC:  MOVLB  2
014CE:  MOVF   x2A,W
014D0:  SUBWF  x2E,W
014D2:  BTFSS  FD8.0
014D4:  BRA    14DC
014D6:  MOVLB  0
014D8:  GOTO   1510
014DC:  MOVLB  0
....................             spi_xfer(FLASH_STREAM1,write_data[spi_xfer_num]);
014DE:  MOVLB  2
014E0:  MOVF   x28,W
014E2:  ADDWF  x2E,W
014E4:  MOVWF  FE9
014E6:  MOVF   x29,W
014E8:  ADDWFC x2F,W
014EA:  MOVWF  FEA
014EC:  MOVFF  FEF,230
014F0:  MOVFF  230,246
014F4:  MOVLW  08
014F6:  MOVWF  x47
014F8:  MOVLW  01
014FA:  MOVWF  x48
014FC:  MOVLB  0
014FE:  CALL   0C60
01502:  MOVLB  2
01504:  INCF   x2E,F
01506:  BTFSC  FD8.2
01508:  INCF   x2F,F
0150A:  MOVLB  0
0150C:  GOTO   14B4
....................          break;
01510:  GOTO   1518
....................          
....................       default:
....................          break;
01514:  GOTO   1518
....................    }
....................    return;
01518:  RETURN 0
.................... }
.................... 
.................... //send multi bytes then receive multi bytes 
.................... void spi_xfer_and_read_select_stream(Flash flash_stream, int8 *write_data, unsigned int16 write_amount, int8 *read_data, unsigned int32 read_amount){
....................    switch(flash_stream.spi_stream_id){
*
00CC0:  MOVLB  2
00CC2:  MOVF   x2A,W
00CC4:  XORLW  00
00CC6:  MOVLB  0
00CC8:  BTFSC  FD8.2
00CCA:  GOTO   0CDA
00CCE:  XORLW  01
00CD0:  BTFSC  FD8.2
00CD2:  GOTO   0DE4
00CD6:  GOTO   0EEE
....................       case SPI_0:
....................       for(unsigned int16 spi_xfer_num = 0;spi_xfer_num < write_amount;spi_xfer_num++)
00CDA:  MOVLB  2
00CDC:  CLRF   x39
00CDE:  CLRF   x38
00CE0:  MOVLB  0
00CE2:  MOVLB  2
00CE4:  MOVF   x39,W
00CE6:  SUBWF  x31,W
00CE8:  BTFSC  FD8.0
00CEA:  BRA    0CF2
00CEC:  MOVLB  0
00CEE:  GOTO   0D3E
00CF2:  MOVLB  0
00CF4:  BTFSS  FD8.2
00CF6:  GOTO   0D0C
00CFA:  MOVLB  2
00CFC:  MOVF   x30,W
00CFE:  SUBWF  x38,W
00D00:  BTFSS  FD8.0
00D02:  BRA    0D0A
00D04:  MOVLB  0
00D06:  GOTO   0D3E
00D0A:  MOVLB  0
....................          spi_xfer(FLASH_STREAM0, write_data[spi_xfer_num]);
00D0C:  MOVLB  2
00D0E:  MOVF   x2E,W
00D10:  ADDWF  x38,W
00D12:  MOVWF  FE9
00D14:  MOVF   x2F,W
00D16:  ADDWFC x39,W
00D18:  MOVWF  FEA
00D1A:  MOVFF  FEF,244
00D1E:  MOVFF  244,246
00D22:  MOVLW  08
00D24:  MOVWF  x47
00D26:  MOVLW  01
00D28:  MOVWF  x48
00D2A:  MOVLB  0
00D2C:  CALL   0C00
00D30:  MOVLB  2
00D32:  INCF   x38,F
00D34:  BTFSC  FD8.2
00D36:  INCF   x39,F
00D38:  MOVLB  0
00D3A:  GOTO   0CE2
....................       for(unsigned int32 spi_rcv_num = 0;spi_rcv_num < read_amount;spi_rcv_num++)
00D3E:  MOVLB  2
00D40:  CLRF   x3D
00D42:  CLRF   x3C
00D44:  CLRF   x3B
00D46:  CLRF   x3A
00D48:  MOVLB  0
00D4A:  MOVLB  2
00D4C:  MOVF   x3D,W
00D4E:  SUBWF  x37,W
00D50:  BTFSC  FD8.0
00D52:  BRA    0D5A
00D54:  MOVLB  0
00D56:  GOTO   0DE0
00D5A:  MOVLB  0
00D5C:  BTFSS  FD8.2
00D5E:  GOTO   0DA4
00D62:  MOVLB  2
00D64:  MOVF   x3C,W
00D66:  SUBWF  x36,W
00D68:  BTFSC  FD8.0
00D6A:  BRA    0D72
00D6C:  MOVLB  0
00D6E:  GOTO   0DE0
00D72:  MOVLB  0
00D74:  BTFSS  FD8.2
00D76:  GOTO   0DA4
00D7A:  MOVLB  2
00D7C:  MOVF   x3B,W
00D7E:  SUBWF  x35,W
00D80:  BTFSC  FD8.0
00D82:  BRA    0D8A
00D84:  MOVLB  0
00D86:  GOTO   0DE0
00D8A:  MOVLB  0
00D8C:  BTFSS  FD8.2
00D8E:  GOTO   0DA4
00D92:  MOVLB  2
00D94:  MOVF   x34,W
00D96:  SUBWF  x3A,W
00D98:  BTFSS  FD8.0
00D9A:  BRA    0DA2
00D9C:  MOVLB  0
00D9E:  GOTO   0DE0
00DA2:  MOVLB  0
....................          read_data[spi_rcv_num] = spi_xfer(FLASH_STREAM0);
00DA4:  MOVLB  2
00DA6:  MOVF   x32,W
00DA8:  ADDWF  x3A,W
00DAA:  MOVWF  FE9
00DAC:  MOVF   x33,W
00DAE:  ADDWFC x3B,W
00DB0:  MOVWF  FEA
00DB2:  MOVLW  01
00DB4:  MOVWF  x46
00DB6:  MOVLW  08
00DB8:  MOVWF  x47
00DBA:  MOVLW  01
00DBC:  MOVWF  x48
00DBE:  MOVLB  0
00DC0:  CALL   0C00
00DC4:  MOVFF  01,FEF
00DC8:  MOVLW  01
00DCA:  MOVLB  2
00DCC:  ADDWF  x3A,F
00DCE:  BTFSC  FD8.0
00DD0:  INCF   x3B,F
00DD2:  BTFSC  FD8.2
00DD4:  INCF   x3C,F
00DD6:  BTFSC  FD8.2
00DD8:  INCF   x3D,F
00DDA:  MOVLB  0
00DDC:  GOTO   0D4A
....................          break;
00DE0:  GOTO   0EF2
....................          
....................       case SPI_1:
....................          for(unsigned int16 spi_xfer_num = 0;spi_xfer_num < write_amount;spi_xfer_num++)
00DE4:  MOVLB  2
00DE6:  CLRF   x3F
00DE8:  CLRF   x3E
00DEA:  MOVLB  0
00DEC:  MOVLB  2
00DEE:  MOVF   x3F,W
00DF0:  SUBWF  x31,W
00DF2:  BTFSC  FD8.0
00DF4:  BRA    0DFC
00DF6:  MOVLB  0
00DF8:  GOTO   0E48
00DFC:  MOVLB  0
00DFE:  BTFSS  FD8.2
00E00:  GOTO   0E16
00E04:  MOVLB  2
00E06:  MOVF   x30,W
00E08:  SUBWF  x3E,W
00E0A:  BTFSS  FD8.0
00E0C:  BRA    0E14
00E0E:  MOVLB  0
00E10:  GOTO   0E48
00E14:  MOVLB  0
....................             spi_xfer(FLASH_STREAM1, write_data[spi_xfer_num]);
00E16:  MOVLB  2
00E18:  MOVF   x2E,W
00E1A:  ADDWF  x3E,W
00E1C:  MOVWF  FE9
00E1E:  MOVF   x2F,W
00E20:  ADDWFC x3F,W
00E22:  MOVWF  FEA
00E24:  MOVFF  FEF,244
00E28:  MOVFF  244,246
00E2C:  MOVLW  08
00E2E:  MOVWF  x47
00E30:  MOVLW  01
00E32:  MOVWF  x48
00E34:  MOVLB  0
00E36:  CALL   0C60
00E3A:  MOVLB  2
00E3C:  INCF   x3E,F
00E3E:  BTFSC  FD8.2
00E40:  INCF   x3F,F
00E42:  MOVLB  0
00E44:  GOTO   0DEC
....................          for(unsigned int32 spi_rcv_num = 0;spi_rcv_num < read_amount;spi_rcv_num++)
00E48:  MOVLB  2
00E4A:  CLRF   x43
00E4C:  CLRF   x42
00E4E:  CLRF   x41
00E50:  CLRF   x40
00E52:  MOVLB  0
00E54:  MOVLB  2
00E56:  MOVF   x43,W
00E58:  SUBWF  x37,W
00E5A:  BTFSC  FD8.0
00E5C:  BRA    0E64
00E5E:  MOVLB  0
00E60:  GOTO   0EEA
00E64:  MOVLB  0
00E66:  BTFSS  FD8.2
00E68:  GOTO   0EAE
00E6C:  MOVLB  2
00E6E:  MOVF   x42,W
00E70:  SUBWF  x36,W
00E72:  BTFSC  FD8.0
00E74:  BRA    0E7C
00E76:  MOVLB  0
00E78:  GOTO   0EEA
00E7C:  MOVLB  0
00E7E:  BTFSS  FD8.2
00E80:  GOTO   0EAE
00E84:  MOVLB  2
00E86:  MOVF   x41,W
00E88:  SUBWF  x35,W
00E8A:  BTFSC  FD8.0
00E8C:  BRA    0E94
00E8E:  MOVLB  0
00E90:  GOTO   0EEA
00E94:  MOVLB  0
00E96:  BTFSS  FD8.2
00E98:  GOTO   0EAE
00E9C:  MOVLB  2
00E9E:  MOVF   x34,W
00EA0:  SUBWF  x40,W
00EA2:  BTFSS  FD8.0
00EA4:  BRA    0EAC
00EA6:  MOVLB  0
00EA8:  GOTO   0EEA
00EAC:  MOVLB  0
....................             read_data[spi_rcv_num] = spi_xfer(FLASH_STREAM1);
00EAE:  MOVLB  2
00EB0:  MOVF   x32,W
00EB2:  ADDWF  x40,W
00EB4:  MOVWF  FE9
00EB6:  MOVF   x33,W
00EB8:  ADDWFC x41,W
00EBA:  MOVWF  FEA
00EBC:  MOVLW  02
00EBE:  MOVWF  x46
00EC0:  MOVLW  08
00EC2:  MOVWF  x47
00EC4:  MOVLW  01
00EC6:  MOVWF  x48
00EC8:  MOVLB  0
00ECA:  CALL   0C60
00ECE:  MOVFF  01,FEF
00ED2:  MOVLW  01
00ED4:  MOVLB  2
00ED6:  ADDWF  x40,F
00ED8:  BTFSC  FD8.0
00EDA:  INCF   x41,F
00EDC:  BTFSC  FD8.2
00EDE:  INCF   x42,F
00EE0:  BTFSC  FD8.2
00EE2:  INCF   x43,F
00EE4:  MOVLB  0
00EE6:  GOTO   0E54
....................          break;
00EEA:  GOTO   0EF2
....................    
....................          
....................       default:
....................          break;
00EEE:  GOTO   0EF2
....................    }
....................    return;
00EF2:  RETURN 0
.................... }
.................... 
.................... //send multi bytes(ex:cmd) then send other multi bytes(for write multi bytes) 
.................... void spi_xfer_two_datas_select_stream(Flash flash_stream, int8 *cmd_data, unsigned int8 cmd_amount, int8 *write_data, unsigned int16 write_amount){
....................    switch(flash_stream.spi_stream_id){
*
0151A:  MOVLB  2
0151C:  MOVF   x24,W
0151E:  XORLW  00
01520:  MOVLB  0
01522:  BTFSC  FD8.2
01524:  GOTO   1534
01528:  XORLW  01
0152A:  BTFSC  FD8.2
0152C:  GOTO   15E2
01530:  GOTO   1690
....................       case SPI_0:
....................       for(unsigned int8 spi_xfer_num = 0;spi_xfer_num < cmd_amount;spi_xfer_num++)
01534:  MOVLB  2
01536:  CLRF   x2F
01538:  MOVLB  0
0153A:  MOVLB  2
0153C:  MOVF   x2A,W
0153E:  SUBWF  x2F,W
01540:  BTFSS  FD8.0
01542:  BRA    154A
01544:  MOVLB  0
01546:  GOTO   157A
0154A:  MOVLB  0
....................          spi_xfer(FLASH_STREAM0, cmd_data[spi_xfer_num]);
0154C:  MOVLB  2
0154E:  MOVF   x2F,W
01550:  ADDWF  x28,W
01552:  MOVWF  FE9
01554:  MOVLW  00
01556:  ADDWFC x29,W
01558:  MOVWF  FEA
0155A:  MOVFF  FEF,235
0155E:  MOVFF  235,246
01562:  MOVLW  08
01564:  MOVWF  x47
01566:  MOVLW  01
01568:  MOVWF  x48
0156A:  MOVLB  0
0156C:  CALL   0C00
01570:  MOVLB  2
01572:  INCF   x2F,F
01574:  MOVLB  0
01576:  GOTO   153A
....................       for(unsigned int16 spi_xfer_num = 0;spi_xfer_num < write_amount;spi_xfer_num++)
0157A:  MOVLB  2
0157C:  CLRF   x31
0157E:  CLRF   x30
01580:  MOVLB  0
01582:  MOVLB  2
01584:  MOVF   x31,W
01586:  SUBWF  x2E,W
01588:  BTFSC  FD8.0
0158A:  BRA    1592
0158C:  MOVLB  0
0158E:  GOTO   15DE
01592:  MOVLB  0
01594:  BTFSS  FD8.2
01596:  GOTO   15AC
0159A:  MOVLB  2
0159C:  MOVF   x2D,W
0159E:  SUBWF  x30,W
015A0:  BTFSS  FD8.0
015A2:  BRA    15AA
015A4:  MOVLB  0
015A6:  GOTO   15DE
015AA:  MOVLB  0
....................          spi_xfer(FLASH_STREAM0, write_data[spi_xfer_num]);
015AC:  MOVLB  2
015AE:  MOVF   x2B,W
015B0:  ADDWF  x30,W
015B2:  MOVWF  FE9
015B4:  MOVF   x2C,W
015B6:  ADDWFC x31,W
015B8:  MOVWF  FEA
015BA:  MOVFF  FEF,235
015BE:  MOVFF  235,246
015C2:  MOVLW  08
015C4:  MOVWF  x47
015C6:  MOVLW  01
015C8:  MOVWF  x48
015CA:  MOVLB  0
015CC:  CALL   0C00
015D0:  MOVLB  2
015D2:  INCF   x30,F
015D4:  BTFSC  FD8.2
015D6:  INCF   x31,F
015D8:  MOVLB  0
015DA:  GOTO   1582
....................          break;
015DE:  GOTO   1694
....................          
....................       case SPI_1:
....................          for(unsigned int8 spi_xfer_num = 0;spi_xfer_num < cmd_amount;spi_xfer_num++)
015E2:  MOVLB  2
015E4:  CLRF   x32
015E6:  MOVLB  0
015E8:  MOVLB  2
015EA:  MOVF   x2A,W
015EC:  SUBWF  x32,W
015EE:  BTFSS  FD8.0
015F0:  BRA    15F8
015F2:  MOVLB  0
015F4:  GOTO   1628
015F8:  MOVLB  0
....................             spi_xfer(FLASH_STREAM1, cmd_data[spi_xfer_num]);
015FA:  MOVLB  2
015FC:  MOVF   x32,W
015FE:  ADDWF  x28,W
01600:  MOVWF  FE9
01602:  MOVLW  00
01604:  ADDWFC x29,W
01606:  MOVWF  FEA
01608:  MOVFF  FEF,235
0160C:  MOVFF  235,246
01610:  MOVLW  08
01612:  MOVWF  x47
01614:  MOVLW  01
01616:  MOVWF  x48
01618:  MOVLB  0
0161A:  CALL   0C60
0161E:  MOVLB  2
01620:  INCF   x32,F
01622:  MOVLB  0
01624:  GOTO   15E8
....................          for(unsigned int16 spi_xfer_num = 0;spi_xfer_num < write_amount;spi_xfer_num++)
01628:  MOVLB  2
0162A:  CLRF   x34
0162C:  CLRF   x33
0162E:  MOVLB  0
01630:  MOVLB  2
01632:  MOVF   x34,W
01634:  SUBWF  x2E,W
01636:  BTFSC  FD8.0
01638:  BRA    1640
0163A:  MOVLB  0
0163C:  GOTO   168C
01640:  MOVLB  0
01642:  BTFSS  FD8.2
01644:  GOTO   165A
01648:  MOVLB  2
0164A:  MOVF   x2D,W
0164C:  SUBWF  x33,W
0164E:  BTFSS  FD8.0
01650:  BRA    1658
01652:  MOVLB  0
01654:  GOTO   168C
01658:  MOVLB  0
....................             spi_xfer(FLASH_STREAM1, write_data[spi_xfer_num]);
0165A:  MOVLB  2
0165C:  MOVF   x2B,W
0165E:  ADDWF  x33,W
01660:  MOVWF  FE9
01662:  MOVF   x2C,W
01664:  ADDWFC x34,W
01666:  MOVWF  FEA
01668:  MOVFF  FEF,235
0166C:  MOVFF  235,246
01670:  MOVLW  08
01672:  MOVWF  x47
01674:  MOVLW  01
01676:  MOVWF  x48
01678:  MOVLB  0
0167A:  CALL   0C60
0167E:  MOVLB  2
01680:  INCF   x33,F
01682:  BTFSC  FD8.2
01684:  INCF   x34,F
01686:  MOVLB  0
01688:  GOTO   1630
....................          break;
0168C:  GOTO   1694
....................          
....................       default:
....................          break;
01690:  GOTO   1694
....................    }
....................    return;
01694:  RETURN 0
.................... }
.................... 
.................... ///////////////////////////////////////////////////////////////////////////////
.................... ///////////////////////////////////////////////////////////////////////////////
.................... ///////////////////////////////////////////////////////////////////////////////
.................... 
.................... void flash_setting(Flash flash_stream){
....................    output_high(flash_stream.cs_pin);
.................... }
....................  
.................... int8 status_register(Flash flash_stream){
01696:  MOVLW  05
01698:  MOVLB  2
0169A:  MOVWF  x28
....................    int8 flash_cmd = CMD_READ_STATUS_REGISTER;
....................    int8 status_reg;
....................    output_low(flash_stream.cs_pin);                                              //lower the CS PIN
0169C:  MOVFF  226,22A
016A0:  CLRF   x2B
016A2:  MOVLW  0F
016A4:  MOVWF  x2D
016A6:  MOVLW  89
016A8:  MOVWF  x2C
016AA:  MOVLB  0
016AC:  CALL   0BAC
016B0:  MOVFF  226,22A
016B4:  MOVLB  2
016B6:  CLRF   x2B
016B8:  MOVLW  0F
016BA:  MOVWF  x2D
016BC:  MOVLW  92
016BE:  MOVWF  x2C
016C0:  MOVLB  0
016C2:  CALL   0BAC
....................    spi_xfer_and_read_select_stream(flash_stream, &flash_cmd, 1, &status_reg, 1);
016C6:  MOVFF  227,22D
016CA:  MOVFF  226,22C
016CE:  MOVFF  225,22B
016D2:  MOVFF  224,22A
016D6:  MOVLW  02
016D8:  MOVLB  2
016DA:  MOVWF  x2F
016DC:  MOVLW  28
016DE:  MOVWF  x2E
016E0:  CLRF   x31
016E2:  MOVLW  01
016E4:  MOVWF  x30
016E6:  MOVLW  02
016E8:  MOVWF  x33
016EA:  MOVLW  29
016EC:  MOVWF  x32
016EE:  CLRF   x37
016F0:  CLRF   x36
016F2:  CLRF   x35
016F4:  MOVLW  01
016F6:  MOVWF  x34
016F8:  MOVLB  0
016FA:  CALL   0CC0
....................    output_high(flash_stream.cs_pin);                                             //take CS PIN higher back
016FE:  MOVFF  226,22A
01702:  MOVLW  01
01704:  MOVLB  2
01706:  MOVWF  x2B
01708:  MOVLW  0F
0170A:  MOVWF  x2D
0170C:  MOVLW  89
0170E:  MOVWF  x2C
01710:  MOVLB  0
01712:  CALL   0BAC
01716:  MOVFF  226,22A
0171A:  MOVLB  2
0171C:  CLRF   x2B
0171E:  MOVLW  0F
01720:  MOVWF  x2D
01722:  MOVLW  92
01724:  MOVWF  x2C
01726:  MOVLB  0
01728:  CALL   0BAC
....................    #ifdef MT25Q_DEBUG
....................       if((status_reg & 0x01) == true)                                          //masking status bit   
....................          fprintf(PC,"flash busy\n\r");
....................    #endif
....................    return status_reg;  
0172C:  MOVLB  2
0172E:  MOVF   x29,W
01730:  MOVWF  01
01732:  MOVLB  0
01734:  RETURN 0
.................... }
.................... 
.................... //
.................... //->success:True,fail:false 
.................... int8 read_id(Flash flash_stream){
....................    int8 flash_cmd = CMD_READ_ID;
....................    int8 chip_id[20];
....................    output_low(flash_stream.cs_pin);
....................    spi_xfer_and_read_select_stream(flash_stream, &flash_cmd, 1, chip_id, 16);
....................    output_high(flash_stream.cs_pin);
....................    #ifdef MT25Q_DEBUG
....................       fprintf(PC,"Read ID:");
....................       for(int8 print_counter = 0;print_counter < 20;print_counter++)
....................          fprintf(PC,"%x ",chip_id[print_counter]);
....................       fprintf(PC,"\r\n");
....................    #endif
....................    //chip id check
....................    if(chip_id[0] == MANUFACTURER_ID_MICRON){  
....................       #ifdef MT25Q_DEBUG
....................          fprintf(PC,"flash connect OK\r\n");
....................       #endif
....................       return true;
....................    }
....................    else{
....................       #ifdef MT25Q_DEBUG
....................          fprintf(PC,"flash not connect\r\n");
....................       #endif
....................       return false;
....................    }
.................... }
....................  
.................... void sector_erase(Flash flash_stream, unsigned int32 sector_address){
.................... //!   #ifdef MT25Q_DEBUG
.................... //!      fprintf(PC,"Sector Erase\r\n");
.................... //!   #endif
....................    if(flash_stream.flash_model == MT25QL128ABA){
....................       int8 write_enable_cmd = CMD_WRITE_ENABLE;
....................       unsigned int8 flash_cmd[4];
.................... //!      #ifdef MT25Q_DEBUG
.................... //!         fprintf(PC,"FLASH MODEL:MT25QL128ABA\r\n");
.................... //!      #endif
....................       flash_cmd[0] = CMD_SECTOR_ERASE;
....................       flash_cmd[1] = (unsigned int8)((sector_address>>16) & 0xff);   // 0x 00 _ _ 00 00
....................       flash_cmd[2] = (unsigned int8)((sector_address>>8) & 0xff);    // 0x 00 00 _ _ 00
....................       flash_cmd[3] = (unsigned int8)((sector_address) & 0xff);       // 0x 00 00 00 _ _
....................             
....................       //Write enable sequence
....................       output_low(flash_stream.cs_pin);
....................       spi_xfer_select_stream(flash_stream, &write_enable_cmd, 1);
....................       output_high(flash_stream.cs_pin);
....................       //Write enabled
....................       
....................       output_low(flash_stream.cs_pin);
....................       ///////////////////////////////////////////////////////////////////
....................       spi_xfer_select_stream(flash_stream, flash_cmd, 4);
....................       //////////////////////////////////////////////////////////////////
....................       output_high(flash_stream.cs_pin);            //take CS PIN higher back
....................    }
....................    else if(flash_stream.flash_model == MT25QL01GBBB){
....................       int8 write_enable_cmd = CMD_WRITE_ENABLE;
....................       unsigned int8 flash_cmd[5];
.................... //!      #ifdef MT25Q_DEBUG
.................... //!         fprintf(PC,"FLASH MODEL:MT25QL01GBBB\r\n");
.................... //!      #endif
....................       flash_cmd[0] = CMD_4BYTE_SECTOR_ERASE;
....................       flash_cmd[1] = (unsigned int8)((sector_address>>24) & 0xff);   // 0x _ _ 00 00 00
....................       flash_cmd[2] = (unsigned int8)((sector_address>>16) & 0xff);   // 0x 00 _ _ 00 00
....................       flash_cmd[3] = (unsigned int8)((sector_address>>8) & 0xff);    // 0x 00 00 _ _ 00
....................       flash_cmd[4] = (unsigned int8)((sector_address) & 0xff);       // 0x 00 00 00 _ _
....................       
....................       //Write enable sequence
....................       output_low(flash_stream.cs_pin);
....................       spi_xfer_select_stream(flash_stream, &write_enable_cmd, 1);
....................       output_high(flash_stream.cs_pin);
....................       //Write enabled
....................       
....................       output_low(flash_stream.cs_pin);
....................       ///////////////////////////////////////////////////////////////////
....................       spi_xfer_select_stream(flash_stream, flash_cmd, 5);
....................       //////////////////////////////////////////////////////////////////
....................       output_high(flash_stream.cs_pin);            //take CS PIN higher back
....................    }
....................    
....................    else{
....................       #ifdef MT25Q_DEBUG
....................          fprintf(PC,"error:flash model is invalid\r\n");
....................       #endif
....................    }
....................    
....................    //wait process finished
....................    unsigned int8 timeout_counter = 0;
....................    while((status_register(flash_stream) & 0x01) == 1){      //masking status bit
....................       if(timeout_counter > 10)
....................          delay_ms(200);
....................       else
....................          delay_ms(10);   
....................       
....................       if(timeout_counter > 100){
....................          #ifdef MT25Q_DEBUG
....................             fprintf(PC,"flash timeout\r\n");
....................          #endif
....................          break;
....................       }  
....................       timeout_counter++;
....................    }
....................    #ifdef MT25Q_DEBUG
....................       fprintf(PC,"flash sector erase complete\r\n");
....................    #endif
....................    return;
.................... }
....................  
.................... void subsector_32kByte_erase(Flash flash_stream, unsigned int32 subsector_address){
....................    if(flash_stream.flash_model == MT25QL128ABA){
....................       int8 write_enable_cmd = CMD_WRITE_ENABLE;
....................       unsigned int8 flash_cmd[4];
....................       
....................       flash_cmd[0] = CMD_SUBSECTOR_32KB_ERASE;
....................       flash_cmd[1] = (unsigned int8)((subsector_address>>16) & 0xff);   // 0x 00 _ _ 00 00
....................       flash_cmd[2] = (unsigned int8)((subsector_address>>8) & 0xff);    // 0x 00 00 _ _ 00
....................       flash_cmd[3] = (unsigned int8)((subsector_address) & 0xff);       // 0x 00 00 00 _ _
....................             
....................       //Write enable sequence
....................       output_low(flash_stream.cs_pin);
....................       spi_xfer_select_stream(flash_stream, &write_enable_cmd, 1);
....................       output_high(flash_stream.cs_pin);
....................       //Write enabled
....................       
....................       output_low(flash_stream.cs_pin);
....................       ///////////////////////////////////////////////////////////////////
....................       spi_xfer_select_stream(flash_stream, flash_cmd, 4);
....................       //////////////////////////////////////////////////////////////////
....................       output_high(flash_stream.cs_pin);            //take CS PIN higher back
....................    }
....................    else if(flash_stream.flash_model == MT25QL01GBBB){
....................       int8 write_enable_cmd = CMD_WRITE_ENABLE;
....................       unsigned int8 flash_cmd[5];
....................       
....................       flash_cmd[0] = CMD_4BYTE_SUBSECTOR_32KB_ERASE;
....................       flash_cmd[1] = (unsigned int8)((subsector_address>>24) & 0xff);   // 0x _ _ 00 00 00
....................       flash_cmd[2] = (unsigned int8)((subsector_address>>16) & 0xff);   // 0x 00 _ _ 00 00
....................       flash_cmd[3] = (unsigned int8)((subsector_address>>8) & 0xff);    // 0x 00 00 _ _ 00
....................       flash_cmd[4] = (unsigned int8)((subsector_address) & 0xff);       // 0x 00 00 00 _ _
....................       
....................       //Write enable sequence
....................       output_low(flash_stream.cs_pin);
....................       spi_xfer_select_stream(flash_stream, &write_enable_cmd, 1);
....................       output_high(flash_stream.cs_pin);
....................       //Write enabled
....................       
....................       output_low(flash_stream.cs_pin);
....................       ///////////////////////////////////////////////////////////////////
....................       spi_xfer_select_stream(flash_stream, flash_cmd, 5);
....................       //////////////////////////////////////////////////////////////////
....................       output_high(flash_stream.cs_pin);            //take CS PIN higher back
....................    }
....................    
....................    else{
....................       #ifdef MT25Q_DEBUG
....................          fprintf(PC,"error:flash model is invalid\r\n");
....................       #endif
....................    }
....................    
....................    //wait process finished
....................    unsigned int8 timeout_counter = 0;
....................    while((status_register(flash_stream) & 0x01) == 1){                  //masking status bit
....................       if(timeout_counter > 10)
....................          delay_ms(200);
....................       else
....................          delay_ms(10);   
....................       
....................       if(timeout_counter > 100){
....................          #ifdef MT25Q_DEBUG
....................             fprintf(PC,"flash timeout\r\n");
....................          #endif
....................          break;
....................       }  
....................       timeout_counter++;
....................    }
....................    #ifdef MT25Q_DEBUG
....................       fprintf(PC,"flash 32kByte subsector erase complete\r\n");
....................    #endif
....................    return;
.................... }
....................  
.................... void subsector_4kByte_erase(Flash flash_stream, unsigned int32 subsector_address){
....................    if(flash_stream.flash_model == MT25QL128ABA){
*
01BD6:  MOVLB  1
01BD8:  MOVF   xFD,F
01BDA:  BTFSC  FD8.2
01BDC:  BRA    1BE4
01BDE:  MOVLB  0
01BE0:  GOTO   1D3A
01BE4:  MOVLB  0
....................       int8 write_enable_cmd = CMD_WRITE_ENABLE;
....................       unsigned int8 flash_cmd[4];
01BE6:  MOVLW  06
01BE8:  MOVLB  2
01BEA:  MOVWF  x04
01BEC:  MOVLB  0
....................       
....................       flash_cmd[0] = CMD_SUBSECTOR_4KB_ERASE;
01BEE:  MOVLW  20
01BF0:  MOVLB  2
01BF2:  MOVWF  x05
....................       flash_cmd[1] = (unsigned int8)((subsector_address>>16) & 0xff);   // 0x 00 _ _ 00 00
01BF4:  MOVFF  202,211
01BF8:  MOVFF  203,212
01BFC:  CLRF   x13
01BFE:  CLRF   x14
01C00:  MOVF   x11,W
01C02:  MOVWF  00
01C04:  CLRF   01
01C06:  CLRF   02
01C08:  CLRF   03
01C0A:  MOVFF  00,206
....................       flash_cmd[2] = (unsigned int8)((subsector_address>>8) & 0xff);    // 0x 00 00 _ _ 00
01C0E:  MOVFF  201,211
01C12:  MOVFF  202,212
01C16:  MOVFF  203,213
01C1A:  CLRF   x14
01C1C:  MOVF   x11,W
01C1E:  MOVWF  00
01C20:  CLRF   01
01C22:  CLRF   02
01C24:  CLRF   03
01C26:  MOVFF  00,207
....................       flash_cmd[3] = (unsigned int8)((subsector_address) & 0xff);       // 0x 00 00 00 _ _
01C2A:  MOVF   x00,W
01C2C:  MOVWF  00
01C2E:  CLRF   01
01C30:  CLRF   02
01C32:  CLRF   03
01C34:  MOVFF  00,208
....................             
....................       //Write enable sequence
....................       output_low(flash_stream.cs_pin);
01C38:  MOVFF  1FE,22A
01C3C:  CLRF   x2B
01C3E:  MOVLW  0F
01C40:  MOVWF  x2D
01C42:  MOVLW  89
01C44:  MOVWF  x2C
01C46:  MOVLB  0
01C48:  CALL   0BAC
01C4C:  MOVFF  1FE,22A
01C50:  MOVLB  2
01C52:  CLRF   x2B
01C54:  MOVLW  0F
01C56:  MOVWF  x2D
01C58:  MOVLW  92
01C5A:  MOVWF  x2C
01C5C:  MOVLB  0
01C5E:  CALL   0BAC
....................       spi_xfer_select_stream(flash_stream, &write_enable_cmd, 1);
01C62:  MOVFF  1FF,227
01C66:  MOVFF  1FE,226
01C6A:  MOVFF  1FD,225
01C6E:  MOVFF  1FC,224
01C72:  MOVLW  02
01C74:  MOVLB  2
01C76:  MOVWF  x29
01C78:  MOVLW  04
01C7A:  MOVWF  x28
01C7C:  CLRF   x2B
01C7E:  MOVLW  01
01C80:  MOVWF  x2A
01C82:  MOVLB  0
01C84:  CALL   142A
....................       output_high(flash_stream.cs_pin);
01C88:  MOVFF  1FE,22A
01C8C:  MOVLW  01
01C8E:  MOVLB  2
01C90:  MOVWF  x2B
01C92:  MOVLW  0F
01C94:  MOVWF  x2D
01C96:  MOVLW  89
01C98:  MOVWF  x2C
01C9A:  MOVLB  0
01C9C:  CALL   0BAC
01CA0:  MOVFF  1FE,22A
01CA4:  MOVLB  2
01CA6:  CLRF   x2B
01CA8:  MOVLW  0F
01CAA:  MOVWF  x2D
01CAC:  MOVLW  92
01CAE:  MOVWF  x2C
01CB0:  MOVLB  0
01CB2:  CALL   0BAC
....................       //Write enabled
....................       
....................       output_low(flash_stream.cs_pin);
01CB6:  MOVFF  1FE,22A
01CBA:  MOVLB  2
01CBC:  CLRF   x2B
01CBE:  MOVLW  0F
01CC0:  MOVWF  x2D
01CC2:  MOVLW  89
01CC4:  MOVWF  x2C
01CC6:  MOVLB  0
01CC8:  CALL   0BAC
01CCC:  MOVFF  1FE,22A
01CD0:  MOVLB  2
01CD2:  CLRF   x2B
01CD4:  MOVLW  0F
01CD6:  MOVWF  x2D
01CD8:  MOVLW  92
01CDA:  MOVWF  x2C
01CDC:  MOVLB  0
01CDE:  CALL   0BAC
....................       ///////////////////////////////////////////////////////////////////
....................       spi_xfer_select_stream(flash_stream, flash_cmd, 4);
01CE2:  MOVFF  1FF,227
01CE6:  MOVFF  1FE,226
01CEA:  MOVFF  1FD,225
01CEE:  MOVFF  1FC,224
01CF2:  MOVLW  02
01CF4:  MOVLB  2
01CF6:  MOVWF  x29
01CF8:  MOVLW  05
01CFA:  MOVWF  x28
01CFC:  CLRF   x2B
01CFE:  MOVLW  04
01D00:  MOVWF  x2A
01D02:  MOVLB  0
01D04:  CALL   142A
....................       //////////////////////////////////////////////////////////////////
....................       output_high(flash_stream.cs_pin);            //take CS PIN higher back
01D08:  MOVFF  1FE,22A
01D0C:  MOVLW  01
01D0E:  MOVLB  2
01D10:  MOVWF  x2B
01D12:  MOVLW  0F
01D14:  MOVWF  x2D
01D16:  MOVLW  89
01D18:  MOVWF  x2C
01D1A:  MOVLB  0
01D1C:  CALL   0BAC
01D20:  MOVFF  1FE,22A
01D24:  MOVLB  2
01D26:  CLRF   x2B
01D28:  MOVLW  0F
01D2A:  MOVWF  x2D
01D2C:  MOVLW  92
01D2E:  MOVWF  x2C
01D30:  MOVLB  0
01D32:  CALL   0BAC
....................    }
01D36:  GOTO   1EB8
....................    else if(flash_stream.flash_model == MT25QL01GBBB){
01D3A:  MOVLB  1
01D3C:  DECFSZ xFD,W
01D3E:  BRA    1D44
01D40:  BRA    1D4A
01D42:  MOVLB  0
01D44:  MOVLB  0
01D46:  GOTO   1EB8
01D4A:  MOVLB  0
....................       int8 write_enable_cmd = CMD_WRITE_ENABLE;
....................       unsigned int8 flash_cmd[5];
01D4C:  MOVLW  06
01D4E:  MOVLB  2
01D50:  MOVWF  x09
01D52:  MOVLB  0
....................       
....................       flash_cmd[0] = CMD_4BYTE_SUBSECTOR_4KB_ERASE;
01D54:  MOVLW  21
01D56:  MOVLB  2
01D58:  MOVWF  x0A
....................       flash_cmd[1] = (unsigned int8)((subsector_address>>24) & 0xff);   // 0x _ _ 00 00 00
01D5A:  MOVFF  203,211
01D5E:  CLRF   x12
01D60:  CLRF   x13
01D62:  CLRF   x14
01D64:  MOVF   x11,W
01D66:  MOVWF  00
01D68:  CLRF   01
01D6A:  CLRF   02
01D6C:  CLRF   03
01D6E:  MOVFF  00,20B
....................       flash_cmd[2] = (unsigned int8)((subsector_address>>16) & 0xff);   // 0x 00 _ _ 00 00
01D72:  MOVFF  202,211
01D76:  MOVFF  203,212
01D7A:  CLRF   x13
01D7C:  CLRF   x14
01D7E:  MOVF   x11,W
01D80:  MOVWF  00
01D82:  CLRF   01
01D84:  CLRF   02
01D86:  CLRF   03
01D88:  MOVFF  00,20C
....................       flash_cmd[3] = (unsigned int8)((subsector_address>>8) & 0xff);    // 0x 00 00 _ _ 00
01D8C:  MOVFF  201,211
01D90:  MOVFF  202,212
01D94:  MOVFF  203,213
01D98:  CLRF   x14
01D9A:  MOVF   x11,W
01D9C:  MOVWF  00
01D9E:  CLRF   01
01DA0:  CLRF   02
01DA2:  CLRF   03
01DA4:  MOVFF  00,20D
....................       flash_cmd[4] = (unsigned int8)((subsector_address) & 0xff);       // 0x 00 00 00 _ _
01DA8:  MOVF   x00,W
01DAA:  MOVWF  00
01DAC:  CLRF   01
01DAE:  CLRF   02
01DB0:  CLRF   03
01DB2:  MOVFF  00,20E
....................       
....................       //Write enable sequence
....................       output_low(flash_stream.cs_pin);
01DB6:  MOVFF  1FE,22A
01DBA:  CLRF   x2B
01DBC:  MOVLW  0F
01DBE:  MOVWF  x2D
01DC0:  MOVLW  89
01DC2:  MOVWF  x2C
01DC4:  MOVLB  0
01DC6:  CALL   0BAC
01DCA:  MOVFF  1FE,22A
01DCE:  MOVLB  2
01DD0:  CLRF   x2B
01DD2:  MOVLW  0F
01DD4:  MOVWF  x2D
01DD6:  MOVLW  92
01DD8:  MOVWF  x2C
01DDA:  MOVLB  0
01DDC:  CALL   0BAC
....................       spi_xfer_select_stream(flash_stream, &write_enable_cmd, 1);
01DE0:  MOVFF  1FF,227
01DE4:  MOVFF  1FE,226
01DE8:  MOVFF  1FD,225
01DEC:  MOVFF  1FC,224
01DF0:  MOVLW  02
01DF2:  MOVLB  2
01DF4:  MOVWF  x29
01DF6:  MOVLW  09
01DF8:  MOVWF  x28
01DFA:  CLRF   x2B
01DFC:  MOVLW  01
01DFE:  MOVWF  x2A
01E00:  MOVLB  0
01E02:  CALL   142A
....................       output_high(flash_stream.cs_pin);
01E06:  MOVFF  1FE,22A
01E0A:  MOVLW  01
01E0C:  MOVLB  2
01E0E:  MOVWF  x2B
01E10:  MOVLW  0F
01E12:  MOVWF  x2D
01E14:  MOVLW  89
01E16:  MOVWF  x2C
01E18:  MOVLB  0
01E1A:  CALL   0BAC
01E1E:  MOVFF  1FE,22A
01E22:  MOVLB  2
01E24:  CLRF   x2B
01E26:  MOVLW  0F
01E28:  MOVWF  x2D
01E2A:  MOVLW  92
01E2C:  MOVWF  x2C
01E2E:  MOVLB  0
01E30:  CALL   0BAC
....................       //Write enabled
....................       
....................       output_low(flash_stream.cs_pin);
01E34:  MOVFF  1FE,22A
01E38:  MOVLB  2
01E3A:  CLRF   x2B
01E3C:  MOVLW  0F
01E3E:  MOVWF  x2D
01E40:  MOVLW  89
01E42:  MOVWF  x2C
01E44:  MOVLB  0
01E46:  CALL   0BAC
01E4A:  MOVFF  1FE,22A
01E4E:  MOVLB  2
01E50:  CLRF   x2B
01E52:  MOVLW  0F
01E54:  MOVWF  x2D
01E56:  MOVLW  92
01E58:  MOVWF  x2C
01E5A:  MOVLB  0
01E5C:  CALL   0BAC
....................       ///////////////////////////////////////////////////////////////////
....................       spi_xfer_select_stream(flash_stream, flash_cmd, 5);
01E60:  MOVFF  1FF,227
01E64:  MOVFF  1FE,226
01E68:  MOVFF  1FD,225
01E6C:  MOVFF  1FC,224
01E70:  MOVLW  02
01E72:  MOVLB  2
01E74:  MOVWF  x29
01E76:  MOVLW  0A
01E78:  MOVWF  x28
01E7A:  CLRF   x2B
01E7C:  MOVLW  05
01E7E:  MOVWF  x2A
01E80:  MOVLB  0
01E82:  CALL   142A
....................       //////////////////////////////////////////////////////////////////
....................       output_high(flash_stream.cs_pin);            //take CS PIN higher back
01E86:  MOVFF  1FE,22A
01E8A:  MOVLW  01
01E8C:  MOVLB  2
01E8E:  MOVWF  x2B
01E90:  MOVLW  0F
01E92:  MOVWF  x2D
01E94:  MOVLW  89
01E96:  MOVWF  x2C
01E98:  MOVLB  0
01E9A:  CALL   0BAC
01E9E:  MOVFF  1FE,22A
01EA2:  MOVLB  2
01EA4:  CLRF   x2B
01EA6:  MOVLW  0F
01EA8:  MOVWF  x2D
01EAA:  MOVLW  92
01EAC:  MOVWF  x2C
01EAE:  MOVLB  0
01EB0:  CALL   0BAC
....................    }
01EB4:  GOTO   1EB8
....................    
....................    else{
....................       #ifdef MT25Q_DEBUG
....................          fprintf(PC,"error:flash model is invalid\r\n");
....................       #endif
....................    }
....................    
....................    //wait process finished
....................    unsigned int8 timeout_counter = 0;
01EB8:  MOVLB  2
01EBA:  CLRF   x0F
01EBC:  MOVLB  0
....................    while((status_register(flash_stream) & 0x01) == 1){                           //masking status bit
01EBE:  MOVFF  1FF,227
01EC2:  MOVFF  1FE,226
01EC6:  MOVFF  1FD,225
01ECA:  MOVFF  1FC,224
01ECE:  CALL   1696
01ED2:  MOVF   01,W
01ED4:  ANDLW  01
01ED6:  SUBLW  01
01ED8:  BTFSS  FD8.2
01EDA:  GOTO   1F2C
....................       if(timeout_counter > 10)
01EDE:  MOVLB  2
01EE0:  MOVF   x0F,W
01EE2:  SUBLW  0A
01EE4:  BTFSS  FD8.0
01EE6:  BRA    1EEE
01EE8:  MOVLB  0
01EEA:  GOTO   1F00
01EEE:  MOVLB  0
....................          delay_ms(200);
01EF0:  MOVLW  C8
01EF2:  MOVLB  2
01EF4:  MOVWF  x24
01EF6:  MOVLB  0
01EF8:  CALL   09C2
01EFC:  GOTO   1F0C
....................       else
....................          delay_ms(10);   
01F00:  MOVLW  0A
01F02:  MOVLB  2
01F04:  MOVWF  x24
01F06:  MOVLB  0
01F08:  CALL   09C2
....................       
....................       if(timeout_counter > 100){
01F0C:  MOVLB  2
01F0E:  MOVF   x0F,W
01F10:  SUBLW  64
01F12:  BTFSS  FD8.0
01F14:  BRA    1F1C
01F16:  MOVLB  0
01F18:  GOTO   1F22
01F1C:  MOVLB  0
....................          #ifdef MT25Q_DEBUG
....................             fprintf(PC,"flash timeout\r\n");
....................          #endif
....................          break;
01F1E:  GOTO   1F2C
....................       }  
....................       timeout_counter++;
01F22:  MOVLB  2
01F24:  INCF   x0F,F
01F26:  MOVLB  0
01F28:  GOTO   1EBE
....................    }
....................    #ifdef MT25Q_DEBUG
....................       fprintf(PC,"flash 4kByte subsector erase complete\r\n");
....................    #endif
....................    return;
01F2C:  GOTO   1F76 (RETURN)
.................... }
....................  
.................... int8 read_data_byte(Flash flash_stream, unsigned int32 read_address){
....................    int8 read_data;
....................    if(flash_stream.flash_model == MT25QL128ABA){
....................       unsigned int8 flash_cmd[4];
....................       
....................       flash_cmd[0] = CMD_READ;
....................       flash_cmd[1] = (unsigned int8)((read_address>>16) & 0xff);   // 0x 00 _ _ 00 00
....................       flash_cmd[2] = (unsigned int8)((read_address>>8) & 0xff);    // 0x 00 00 _ _ 00
....................       flash_cmd[3] = (unsigned int8)((read_address) & 0xff);       // 0x 00 00 00 _ _
....................             
....................       output_low(flash_stream.cs_pin);
....................       ///////////////////////////////////////////////////////////////////
....................       spi_xfer_and_read_select_stream(flash_stream, flash_cmd, 4, &read_data, 1);
....................       //////////////////////////////////////////////////////////////////
....................       delay_us(2);
....................       output_high(flash_stream.cs_pin);            //take CS PIN higher back
....................    }
....................    else if(flash_stream.flash_model == MT25QL01GBBB){
....................       unsigned int8 flash_cmd[5];
....................       
....................       flash_cmd[0] = CMD_4BYTE_READ;
....................       flash_cmd[1] = (unsigned int8)((read_address>>24) & 0xff);   // 0x _ _ 00 00 00
....................       flash_cmd[2] = (unsigned int8)((read_address>>16) & 0xff);   // 0x 00 _ _ 00 00
....................       flash_cmd[3] = (unsigned int8)((read_address>>8) & 0xff);    // 0x 00 00 _ _ 00
....................       flash_cmd[4] = (unsigned int8)((read_address) & 0xff);       // 0x 00 00 00 _ _
....................    
....................       output_low(flash_stream.cs_pin);
....................       ///////////////////////////////////////////////////////////////////
....................       spi_xfer_and_read_select_stream(flash_stream, flash_cmd, 5, &read_data, 1);
....................       //////////////////////////////////////////////////////////////////
....................       delay_us(2);
....................       output_high(flash_stream.cs_pin);            //take CS PIN higher back
....................    }
....................    return read_data;
.................... }
....................  
.................... void read_data_bytes(Flash flash_stream, unsigned int32 read_start_address, int8 *read_data, unsigned int32 read_amount)
.................... {
....................    if(flash_stream.flash_model == MT25QL128ABA){
*
00FE0:  MOVLB  1
00FE2:  MOVF   xB5,F
00FE4:  BTFSC  FD8.2
00FE6:  BRA    0FEE
00FE8:  MOVLB  0
00FEA:  GOTO   10E0
00FEE:  MOVLB  0
....................       unsigned int8 flash_cmd[4];
....................       
....................       flash_cmd[0] = CMD_READ;
00FF0:  MOVLW  03
00FF2:  MOVLB  1
00FF4:  MOVWF  xC2
....................       flash_cmd[1] = (unsigned int8)((read_start_address>>16) & 0xff);   // 0x 00 _ _ 00 00
00FF6:  MOVFF  1BA,1CC
00FFA:  MOVFF  1BB,1CD
00FFE:  CLRF   xCE
01000:  CLRF   xCF
01002:  MOVF   xCC,W
01004:  MOVWF  00
01006:  CLRF   01
01008:  CLRF   02
0100A:  CLRF   03
0100C:  MOVFF  00,1C3
....................       flash_cmd[2] = (unsigned int8)((read_start_address>>8) & 0xff);    // 0x 00 00 _ _ 00
01010:  MOVFF  1B9,1CC
01014:  MOVFF  1BA,1CD
01018:  MOVFF  1BB,1CE
0101C:  CLRF   xCF
0101E:  MOVF   xCC,W
01020:  MOVWF  00
01022:  CLRF   01
01024:  CLRF   02
01026:  CLRF   03
01028:  MOVFF  00,1C4
....................       flash_cmd[3] = (unsigned int8)((read_start_address) & 0xff);       // 0x 00 00 00 _ _
0102C:  MOVF   xB8,W
0102E:  MOVWF  00
01030:  CLRF   01
01032:  CLRF   02
01034:  CLRF   03
01036:  MOVFF  00,1C5
....................             
....................       output_low(flash_stream.cs_pin);
0103A:  MOVFF  1B6,22A
0103E:  MOVLB  2
01040:  CLRF   x2B
01042:  MOVLW  0F
01044:  MOVWF  x2D
01046:  MOVLW  89
01048:  MOVWF  x2C
0104A:  MOVLB  0
0104C:  CALL   0BAC
01050:  MOVFF  1B6,22A
01054:  MOVLB  2
01056:  CLRF   x2B
01058:  MOVLW  0F
0105A:  MOVWF  x2D
0105C:  MOVLW  92
0105E:  MOVWF  x2C
01060:  MOVLB  0
01062:  CALL   0BAC
....................       ///////////////////////////////////////////////////////////////////
....................       spi_xfer_and_read_select_stream(flash_stream, flash_cmd, 4, read_data, read_amount);
01066:  MOVFF  1B7,22D
0106A:  MOVFF  1B6,22C
0106E:  MOVFF  1B5,22B
01072:  MOVFF  1B4,22A
01076:  MOVLW  01
01078:  MOVLB  2
0107A:  MOVWF  x2F
0107C:  MOVLW  C2
0107E:  MOVWF  x2E
01080:  CLRF   x31
01082:  MOVLW  04
01084:  MOVWF  x30
01086:  MOVFF  1BD,233
0108A:  MOVFF  1BC,232
0108E:  MOVFF  1C1,237
01092:  MOVFF  1C0,236
01096:  MOVFF  1BF,235
0109A:  MOVFF  1BE,234
0109E:  MOVLB  0
010A0:  CALL   0CC0
....................       //////////////////////////////////////////////////////////////////
....................       delay_us(2);
010A4:  MOVLW  02
010A6:  MOVWF  00
010A8:  DECFSZ 00,F
010AA:  BRA    10A8
010AC:  NOP   
....................       output_high(flash_stream.cs_pin);            //take CS PIN higher back
010AE:  MOVFF  1B6,22A
010B2:  MOVLW  01
010B4:  MOVLB  2
010B6:  MOVWF  x2B
010B8:  MOVLW  0F
010BA:  MOVWF  x2D
010BC:  MOVLW  89
010BE:  MOVWF  x2C
010C0:  MOVLB  0
010C2:  CALL   0BAC
010C6:  MOVFF  1B6,22A
010CA:  MOVLB  2
010CC:  CLRF   x2B
010CE:  MOVLW  0F
010D0:  MOVWF  x2D
010D2:  MOVLW  92
010D4:  MOVWF  x2C
010D6:  MOVLB  0
010D8:  CALL   0BAC
....................    }
010DC:  GOTO   11F6
....................    else if(flash_stream.flash_model == MT25QL01GBBB){
010E0:  MOVLB  1
010E2:  DECFSZ xB5,W
010E4:  BRA    10EA
010E6:  BRA    10F0
010E8:  MOVLB  0
010EA:  MOVLB  0
010EC:  GOTO   11F6
010F0:  MOVLB  0
....................       unsigned int8 flash_cmd[5];
....................       
....................       flash_cmd[0] = CMD_4BYTE_READ;
010F2:  MOVLW  13
010F4:  MOVLB  1
010F6:  MOVWF  xC6
....................       flash_cmd[1] = (unsigned int8)((read_start_address>>24) & 0xff);   // 0x _ _ 00 00 00
010F8:  MOVFF  1BB,1CC
010FC:  CLRF   xCD
010FE:  CLRF   xCE
01100:  CLRF   xCF
01102:  MOVF   xCC,W
01104:  MOVWF  00
01106:  CLRF   01
01108:  CLRF   02
0110A:  CLRF   03
0110C:  MOVFF  00,1C7
....................       flash_cmd[2] = (unsigned int8)((read_start_address>>16) & 0xff);   // 0x 00 _ _ 00 00
01110:  MOVFF  1BA,1CC
01114:  MOVFF  1BB,1CD
01118:  CLRF   xCE
0111A:  CLRF   xCF
0111C:  MOVF   xCC,W
0111E:  MOVWF  00
01120:  CLRF   01
01122:  CLRF   02
01124:  CLRF   03
01126:  MOVFF  00,1C8
....................       flash_cmd[3] = (unsigned int8)((read_start_address>>8) & 0xff);    // 0x 00 00 _ _ 00
0112A:  MOVFF  1B9,1CC
0112E:  MOVFF  1BA,1CD
01132:  MOVFF  1BB,1CE
01136:  CLRF   xCF
01138:  MOVF   xCC,W
0113A:  MOVWF  00
0113C:  CLRF   01
0113E:  CLRF   02
01140:  CLRF   03
01142:  MOVFF  00,1C9
....................       flash_cmd[4] = (unsigned int8)((read_start_address) & 0xff);       // 0x 00 00 00 _ _
01146:  MOVF   xB8,W
01148:  MOVWF  00
0114A:  CLRF   01
0114C:  CLRF   02
0114E:  CLRF   03
01150:  MOVFF  00,1CA
....................    
....................       output_low(flash_stream.cs_pin);
01154:  MOVFF  1B6,22A
01158:  MOVLB  2
0115A:  CLRF   x2B
0115C:  MOVLW  0F
0115E:  MOVWF  x2D
01160:  MOVLW  89
01162:  MOVWF  x2C
01164:  MOVLB  0
01166:  CALL   0BAC
0116A:  MOVFF  1B6,22A
0116E:  MOVLB  2
01170:  CLRF   x2B
01172:  MOVLW  0F
01174:  MOVWF  x2D
01176:  MOVLW  92
01178:  MOVWF  x2C
0117A:  MOVLB  0
0117C:  CALL   0BAC
....................       ///////////////////////////////////////////////////////////////////
....................       spi_xfer_and_read_select_stream(flash_stream, flash_cmd, 5, read_data, read_amount);
01180:  MOVFF  1B7,22D
01184:  MOVFF  1B6,22C
01188:  MOVFF  1B5,22B
0118C:  MOVFF  1B4,22A
01190:  MOVLW  01
01192:  MOVLB  2
01194:  MOVWF  x2F
01196:  MOVLW  C6
01198:  MOVWF  x2E
0119A:  CLRF   x31
0119C:  MOVLW  05
0119E:  MOVWF  x30
011A0:  MOVFF  1BD,233
011A4:  MOVFF  1BC,232
011A8:  MOVFF  1C1,237
011AC:  MOVFF  1C0,236
011B0:  MOVFF  1BF,235
011B4:  MOVFF  1BE,234
011B8:  MOVLB  0
011BA:  CALL   0CC0
....................       //////////////////////////////////////////////////////////////////
....................       delay_us(2);
011BE:  MOVLW  02
011C0:  MOVWF  00
011C2:  DECFSZ 00,F
011C4:  BRA    11C2
011C6:  NOP   
....................       output_high(flash_stream.cs_pin);            //take CS PIN higher back
011C8:  MOVFF  1B6,22A
011CC:  MOVLW  01
011CE:  MOVLB  2
011D0:  MOVWF  x2B
011D2:  MOVLW  0F
011D4:  MOVWF  x2D
011D6:  MOVLW  89
011D8:  MOVWF  x2C
011DA:  MOVLB  0
011DC:  CALL   0BAC
011E0:  MOVFF  1B6,22A
011E4:  MOVLB  2
011E6:  CLRF   x2B
011E8:  MOVLW  0F
011EA:  MOVWF  x2D
011EC:  MOVLW  92
011EE:  MOVWF  x2C
011F0:  MOVLB  0
011F2:  CALL   0BAC
....................    }
....................    return;
011F6:  RETURN 0
.................... }
....................  
.................... void write_data_byte(Flash flash_stream, unsigned int32 write_address,int8 write_data)
.................... {
....................    if(flash_stream.flash_model == MT25QL128ABA){
....................       int8 write_enable_cmd = CMD_WRITE_ENABLE;
....................       unsigned int8 flash_cmd[5];
....................       
....................       flash_cmd[0] = CMD_PAGE_PROGRAM;
....................       flash_cmd[1] = (unsigned int8)((write_address>>16) & 0xff);   // 0x 00 _ _ 00 00
....................       flash_cmd[2] = (unsigned int8)((write_address>>8) & 0xff);    // 0x 00 00 _ _ 00
....................       flash_cmd[3] = (unsigned int8)((write_address) & 0xff);       // 0x 00 00 00 _ _
....................       flash_cmd[4] = write_data;
.................... 
....................       //Write enable sequence
....................       output_low(flash_stream.cs_pin);
....................       spi_xfer_select_stream(flash_stream, &write_enable_cmd, 1);
....................       output_high(flash_stream.cs_pin);
....................       //Write enabled
....................       
....................       output_low(flash_stream.cs_pin);
....................       ///////////////////////////////////////////////////////////////////
....................       spi_xfer_select_stream(flash_stream, flash_cmd, 5);
....................       //////////////////////////////////////////////////////////////////
....................       delay_us(2);
....................       output_high(flash_stream.cs_pin);            //take CS PIN higher back
....................    }
....................    else if(flash_stream.flash_model == MT25QL01GBBB){
....................       int8 write_enable_cmd = CMD_WRITE_ENABLE;
....................       unsigned int8 flash_cmd[6];
....................       
....................       flash_cmd[0] = CMD_4BYTE_PAGE_PROGRAM;
....................       flash_cmd[1] = (unsigned int8)((write_address>>24) & 0xff);   // 0x _ _ 00 00 00
....................       flash_cmd[2] = (unsigned int8)((write_address>>16) & 0xff);   // 0x 00 _ _ 00 00
....................       flash_cmd[3] = (unsigned int8)((write_address>>8) & 0xff);    // 0x 00 00 _ _ 00
....................       flash_cmd[4] = (unsigned int8)((write_address) & 0xff);       // 0x 00 00 00 _ _
....................       flash_cmd[5] = write_data;
....................    
....................       //Write enable sequence
....................       output_low(flash_stream.cs_pin);
....................       spi_xfer_select_stream(flash_stream, &write_enable_cmd, 1);
....................       output_high(flash_stream.cs_pin);
....................       //Write enabled
....................       output_low(flash_stream.cs_pin);
....................       ///////////////////////////////////////////////////////////////////
....................       spi_xfer_select_stream(flash_stream, flash_cmd, 6);
....................       //////////////////////////////////////////////////////////////////
....................       delay_us(2);
....................       output_high(flash_stream.cs_pin);            //take CS PIN higher back
....................    }
....................    
....................    //wait process finished
....................    unsigned int8 timeout_counter = 0;
....................    while((status_register(flash_stream) & 0x01) == 1){                           //masking status bit
....................       if(timeout_counter > 10)
....................          delay_ms(200);
....................       else
....................          delay_ms(10);   
....................       
....................       if(timeout_counter > 100){
....................          #ifdef MT25Q_DEBUG
....................             fprintf(PC,"flash timeout\r\n");
....................          #endif
....................          break;
....................       }  
....................       timeout_counter++;
....................    }
....................    #ifdef MT25Q_DEBUG
....................       fprintf(PC,"flash write complete\r\n");
....................    #endif
....................    return;
.................... }
....................  
.................... void write_data_bytes(Flash flash_stream, unsigned int32 write_start_address, int8 *write_data, unsigned int16 write_amount){
....................    if(flash_stream.flash_model == MT25QL128ABA){
*
01736:  MOVLB  2
01738:  MOVF   x0D,F
0173A:  BTFSC  FD8.2
0173C:  BRA    1744
0173E:  MOVLB  0
01740:  GOTO   18B2
01744:  MOVLB  0
....................       int8 write_enable_cmd = CMD_WRITE_ENABLE;
....................       unsigned int8 flash_cmd[4];
01746:  MOVLW  06
01748:  MOVLB  2
0174A:  MOVWF  x18
0174C:  MOVLB  0
....................       
....................       flash_cmd[0] = CMD_PAGE_PROGRAM;
0174E:  MOVLW  02
01750:  MOVLB  2
01752:  MOVWF  x19
....................       flash_cmd[1] = (unsigned int8)((write_start_address>>16) & 0xff);   // 0x 00 _ _ 00 00
01754:  MOVFF  212,225
01758:  MOVFF  213,226
0175C:  CLRF   x27
0175E:  CLRF   x28
01760:  MOVF   x25,W
01762:  MOVWF  00
01764:  CLRF   01
01766:  CLRF   02
01768:  CLRF   03
0176A:  MOVFF  00,21A
....................       flash_cmd[2] = (unsigned int8)((write_start_address>>8) & 0xff);    // 0x 00 00 _ _ 00
0176E:  MOVFF  211,225
01772:  MOVFF  212,226
01776:  MOVFF  213,227
0177A:  CLRF   x28
0177C:  MOVF   x25,W
0177E:  MOVWF  00
01780:  CLRF   01
01782:  CLRF   02
01784:  CLRF   03
01786:  MOVFF  00,21B
....................       flash_cmd[3] = (unsigned int8)((write_start_address) & 0xff);       // 0x 00 00 00 _ _
0178A:  MOVF   x10,W
0178C:  MOVWF  00
0178E:  CLRF   01
01790:  CLRF   02
01792:  CLRF   03
01794:  MOVFF  00,21C
.................... 
....................       //fprintf(PC, "address:0x%08LX\r\n", write_start_address);
.................... 
....................       //Write enable sequence
....................       output_low(flash_stream.cs_pin);
01798:  MOVFF  20E,22A
0179C:  CLRF   x2B
0179E:  MOVLW  0F
017A0:  MOVWF  x2D
017A2:  MOVLW  89
017A4:  MOVWF  x2C
017A6:  MOVLB  0
017A8:  CALL   0BAC
017AC:  MOVFF  20E,22A
017B0:  MOVLB  2
017B2:  CLRF   x2B
017B4:  MOVLW  0F
017B6:  MOVWF  x2D
017B8:  MOVLW  92
017BA:  MOVWF  x2C
017BC:  MOVLB  0
017BE:  CALL   0BAC
....................       spi_xfer_select_stream(flash_stream, &write_enable_cmd, 1);
017C2:  MOVFF  20F,227
017C6:  MOVFF  20E,226
017CA:  MOVFF  20D,225
017CE:  MOVFF  20C,224
017D2:  MOVLW  02
017D4:  MOVLB  2
017D6:  MOVWF  x29
017D8:  MOVLW  18
017DA:  MOVWF  x28
017DC:  CLRF   x2B
017DE:  MOVLW  01
017E0:  MOVWF  x2A
017E2:  MOVLB  0
017E4:  CALL   142A
....................       output_high(flash_stream.cs_pin);
017E8:  MOVFF  20E,22A
017EC:  MOVLW  01
017EE:  MOVLB  2
017F0:  MOVWF  x2B
017F2:  MOVLW  0F
017F4:  MOVWF  x2D
017F6:  MOVLW  89
017F8:  MOVWF  x2C
017FA:  MOVLB  0
017FC:  CALL   0BAC
01800:  MOVFF  20E,22A
01804:  MOVLB  2
01806:  CLRF   x2B
01808:  MOVLW  0F
0180A:  MOVWF  x2D
0180C:  MOVLW  92
0180E:  MOVWF  x2C
01810:  MOVLB  0
01812:  CALL   0BAC
....................       //Write enabled
....................       
....................       output_low(flash_stream.cs_pin);
01816:  MOVFF  20E,22A
0181A:  MOVLB  2
0181C:  CLRF   x2B
0181E:  MOVLW  0F
01820:  MOVWF  x2D
01822:  MOVLW  89
01824:  MOVWF  x2C
01826:  MOVLB  0
01828:  CALL   0BAC
0182C:  MOVFF  20E,22A
01830:  MOVLB  2
01832:  CLRF   x2B
01834:  MOVLW  0F
01836:  MOVWF  x2D
01838:  MOVLW  92
0183A:  MOVWF  x2C
0183C:  MOVLB  0
0183E:  CALL   0BAC
....................       ///////////////////////////////////////////////////////////////////
....................       spi_xfer_two_datas_select_stream(flash_stream, flash_cmd, 4, write_data, write_amount);
01842:  MOVFF  20F,227
01846:  MOVFF  20E,226
0184A:  MOVFF  20D,225
0184E:  MOVFF  20C,224
01852:  MOVLW  02
01854:  MOVLB  2
01856:  MOVWF  x29
01858:  MOVLW  19
0185A:  MOVWF  x28
0185C:  MOVLW  04
0185E:  MOVWF  x2A
01860:  MOVFF  215,22C
01864:  MOVFF  214,22B
01868:  MOVFF  217,22E
0186C:  MOVFF  216,22D
01870:  MOVLB  0
01872:  CALL   151A
....................       //////////////////////////////////////////////////////////////////
....................       delay_us(2);
01876:  MOVLW  02
01878:  MOVWF  00
0187A:  DECFSZ 00,F
0187C:  BRA    187A
0187E:  NOP   
....................       output_high(flash_stream.cs_pin);            //take CS PIN higher back
01880:  MOVFF  20E,22A
01884:  MOVLW  01
01886:  MOVLB  2
01888:  MOVWF  x2B
0188A:  MOVLW  0F
0188C:  MOVWF  x2D
0188E:  MOVLW  89
01890:  MOVWF  x2C
01892:  MOVLB  0
01894:  CALL   0BAC
01898:  MOVFF  20E,22A
0189C:  MOVLB  2
0189E:  CLRF   x2B
018A0:  MOVLW  0F
018A2:  MOVWF  x2D
018A4:  MOVLW  92
018A6:  MOVWF  x2C
018A8:  MOVLB  0
018AA:  CALL   0BAC
....................    }
018AE:  GOTO   1A44
....................    else if(flash_stream.flash_model == MT25QL01GBBB){
018B2:  MOVLB  2
018B4:  DECFSZ x0D,W
018B6:  BRA    18BC
018B8:  BRA    18C2
018BA:  MOVLB  0
018BC:  MOVLB  0
018BE:  GOTO   1A44
018C2:  MOVLB  0
....................       int8 write_enable_cmd = CMD_WRITE_ENABLE;
....................       unsigned int8 flash_cmd[5];
018C4:  MOVLW  06
018C6:  MOVLB  2
018C8:  MOVWF  x1D
018CA:  MOVLB  0
....................       
....................       flash_cmd[0] = CMD_4BYTE_PAGE_PROGRAM;
018CC:  MOVLW  12
018CE:  MOVLB  2
018D0:  MOVWF  x1E
....................       flash_cmd[1] = (unsigned int8)((write_start_address>>24) & 0xff);   // 0x _ _ 00 00 00
018D2:  MOVFF  213,225
018D6:  CLRF   x26
018D8:  CLRF   x27
018DA:  CLRF   x28
018DC:  MOVF   x25,W
018DE:  MOVWF  00
018E0:  CLRF   01
018E2:  CLRF   02
018E4:  CLRF   03
018E6:  MOVFF  00,21F
....................       flash_cmd[2] = (unsigned int8)((write_start_address>>16) & 0xff);   // 0x 00 _ _ 00 00
018EA:  MOVFF  212,225
018EE:  MOVFF  213,226
018F2:  CLRF   x27
018F4:  CLRF   x28
018F6:  MOVF   x25,W
018F8:  MOVWF  00
018FA:  CLRF   01
018FC:  CLRF   02
018FE:  CLRF   03
01900:  MOVFF  00,220
....................       flash_cmd[3] = (unsigned int8)((write_start_address>>8) & 0xff);    // 0x 00 00 _ _ 00
01904:  MOVFF  211,225
01908:  MOVFF  212,226
0190C:  MOVFF  213,227
01910:  CLRF   x28
01912:  MOVF   x25,W
01914:  MOVWF  00
01916:  CLRF   01
01918:  CLRF   02
0191A:  CLRF   03
0191C:  MOVFF  00,221
....................       flash_cmd[4] = (unsigned int8)((write_start_address) & 0xff);       // 0x 00 00 00 _ _
01920:  MOVF   x10,W
01922:  MOVWF  00
01924:  CLRF   01
01926:  CLRF   02
01928:  CLRF   03
0192A:  MOVFF  00,222
....................    
....................       //Write enable sequence
....................       output_low(flash_stream.cs_pin);
0192E:  MOVFF  20E,22A
01932:  CLRF   x2B
01934:  MOVLW  0F
01936:  MOVWF  x2D
01938:  MOVLW  89
0193A:  MOVWF  x2C
0193C:  MOVLB  0
0193E:  CALL   0BAC
01942:  MOVFF  20E,22A
01946:  MOVLB  2
01948:  CLRF   x2B
0194A:  MOVLW  0F
0194C:  MOVWF  x2D
0194E:  MOVLW  92
01950:  MOVWF  x2C
01952:  MOVLB  0
01954:  CALL   0BAC
....................       spi_xfer_select_stream(flash_stream, &write_enable_cmd, 1);
01958:  MOVFF  20F,227
0195C:  MOVFF  20E,226
01960:  MOVFF  20D,225
01964:  MOVFF  20C,224
01968:  MOVLW  02
0196A:  MOVLB  2
0196C:  MOVWF  x29
0196E:  MOVLW  1D
01970:  MOVWF  x28
01972:  CLRF   x2B
01974:  MOVLW  01
01976:  MOVWF  x2A
01978:  MOVLB  0
0197A:  CALL   142A
....................       output_high(flash_stream.cs_pin);
0197E:  MOVFF  20E,22A
01982:  MOVLW  01
01984:  MOVLB  2
01986:  MOVWF  x2B
01988:  MOVLW  0F
0198A:  MOVWF  x2D
0198C:  MOVLW  89
0198E:  MOVWF  x2C
01990:  MOVLB  0
01992:  CALL   0BAC
01996:  MOVFF  20E,22A
0199A:  MOVLB  2
0199C:  CLRF   x2B
0199E:  MOVLW  0F
019A0:  MOVWF  x2D
019A2:  MOVLW  92
019A4:  MOVWF  x2C
019A6:  MOVLB  0
019A8:  CALL   0BAC
....................       //Write enabled
....................       output_low(flash_stream.cs_pin);
019AC:  MOVFF  20E,22A
019B0:  MOVLB  2
019B2:  CLRF   x2B
019B4:  MOVLW  0F
019B6:  MOVWF  x2D
019B8:  MOVLW  89
019BA:  MOVWF  x2C
019BC:  MOVLB  0
019BE:  CALL   0BAC
019C2:  MOVFF  20E,22A
019C6:  MOVLB  2
019C8:  CLRF   x2B
019CA:  MOVLW  0F
019CC:  MOVWF  x2D
019CE:  MOVLW  92
019D0:  MOVWF  x2C
019D2:  MOVLB  0
019D4:  CALL   0BAC
....................       ///////////////////////////////////////////////////////////////////
....................       spi_xfer_two_datas_select_stream(flash_stream, flash_cmd, 5, write_data, write_amount);
019D8:  MOVFF  20F,227
019DC:  MOVFF  20E,226
019E0:  MOVFF  20D,225
019E4:  MOVFF  20C,224
019E8:  MOVLW  02
019EA:  MOVLB  2
019EC:  MOVWF  x29
019EE:  MOVLW  1E
019F0:  MOVWF  x28
019F2:  MOVLW  05
019F4:  MOVWF  x2A
019F6:  MOVFF  215,22C
019FA:  MOVFF  214,22B
019FE:  MOVFF  217,22E
01A02:  MOVFF  216,22D
01A06:  MOVLB  0
01A08:  CALL   151A
....................       //////////////////////////////////////////////////////////////////
....................       delay_us(2);
01A0C:  MOVLW  02
01A0E:  MOVWF  00
01A10:  DECFSZ 00,F
01A12:  BRA    1A10
01A14:  NOP   
....................       output_high(flash_stream.cs_pin);            //take CS PIN higher back
01A16:  MOVFF  20E,22A
01A1A:  MOVLW  01
01A1C:  MOVLB  2
01A1E:  MOVWF  x2B
01A20:  MOVLW  0F
01A22:  MOVWF  x2D
01A24:  MOVLW  89
01A26:  MOVWF  x2C
01A28:  MOVLB  0
01A2A:  CALL   0BAC
01A2E:  MOVFF  20E,22A
01A32:  MOVLB  2
01A34:  CLRF   x2B
01A36:  MOVLW  0F
01A38:  MOVWF  x2D
01A3A:  MOVLW  92
01A3C:  MOVWF  x2C
01A3E:  MOVLB  0
01A40:  CALL   0BAC
....................    }
....................    
....................    //wait process finished
....................    unsigned int8 timeout_counter = 0;
01A44:  MOVLB  2
01A46:  CLRF   x23
01A48:  MOVLB  0
....................    while((status_register(flash_stream) & 0x01) == 1){                           //masking status bit
01A4A:  MOVFF  20F,227
01A4E:  MOVFF  20E,226
01A52:  MOVFF  20D,225
01A56:  MOVFF  20C,224
01A5A:  CALL   1696
01A5E:  MOVF   01,W
01A60:  ANDLW  01
01A62:  SUBLW  01
01A64:  BTFSS  FD8.2
01A66:  GOTO   1AB8
....................       if(timeout_counter > 10)
01A6A:  MOVLB  2
01A6C:  MOVF   x23,W
01A6E:  SUBLW  0A
01A70:  BTFSS  FD8.0
01A72:  BRA    1A7A
01A74:  MOVLB  0
01A76:  GOTO   1A8C
01A7A:  MOVLB  0
....................          delay_ms(200);
01A7C:  MOVLW  C8
01A7E:  MOVLB  2
01A80:  MOVWF  x24
01A82:  MOVLB  0
01A84:  CALL   09C2
01A88:  GOTO   1A98
....................       else
....................          delay_ms(10);   
01A8C:  MOVLW  0A
01A8E:  MOVLB  2
01A90:  MOVWF  x24
01A92:  MOVLB  0
01A94:  CALL   09C2
....................       
....................       if(timeout_counter > 100){
01A98:  MOVLB  2
01A9A:  MOVF   x23,W
01A9C:  SUBLW  64
01A9E:  BTFSS  FD8.0
01AA0:  BRA    1AA8
01AA2:  MOVLB  0
01AA4:  GOTO   1AAE
01AA8:  MOVLB  0
....................          #ifdef MT25Q_DEBUG
....................             fprintf(PC,"flash timeout\r\n");
....................          #endif
....................          break;
01AAA:  GOTO   1AB8
....................       }  
....................       timeout_counter++;
01AAE:  MOVLB  2
01AB0:  INCF   x23,F
01AB2:  MOVLB  0
01AB4:  GOTO   1A4A
....................    }
....................    #ifdef MT25Q_DEBUG
....................       fprintf(PC,"flash write complete\r\n");
....................    #endif
....................    return;
01AB8:  RETURN 0
.................... }
.................... 
....................  
.................... int1 is_connect(Flash flash_stream){
*
00EF4:  MOVLW  9F
00EF6:  MOVLB  1
00EF8:  MOVWF  xBC
....................    READ_ID_DATA read_id_data;
....................    int8 flash_cmd = CMD_READ_ID;
....................    output_low(flash_stream.cs_pin);
00EFA:  MOVFF  1A6,22A
00EFE:  MOVLB  2
00F00:  CLRF   x2B
00F02:  MOVLW  0F
00F04:  MOVWF  x2D
00F06:  MOVLW  89
00F08:  MOVWF  x2C
00F0A:  MOVLB  0
00F0C:  CALL   0BAC
00F10:  MOVFF  1A6,22A
00F14:  MOVLB  2
00F16:  CLRF   x2B
00F18:  MOVLW  0F
00F1A:  MOVWF  x2D
00F1C:  MOVLW  92
00F1E:  MOVWF  x2C
00F20:  MOVLB  0
00F22:  CALL   0BAC
....................    delay_us(10);  
00F26:  MOVLW  0D
00F28:  MOVWF  00
00F2A:  DECFSZ 00,F
00F2C:  BRA    0F2A
....................    spi_xfer_and_read_select_stream(flash_stream, &flash_cmd, 1, read_id_data.bytes, sizeof(read_id_data.bytes));
00F2E:  MOVFF  1A7,22D
00F32:  MOVFF  1A6,22C
00F36:  MOVFF  1A5,22B
00F3A:  MOVFF  1A4,22A
00F3E:  MOVLW  01
00F40:  MOVLB  2
00F42:  MOVWF  x2F
00F44:  MOVLW  BC
00F46:  MOVWF  x2E
00F48:  CLRF   x31
00F4A:  MOVLW  01
00F4C:  MOVWF  x30
00F4E:  MOVLW  01
00F50:  MOVWF  x33
00F52:  MOVLW  A8
00F54:  MOVWF  x32
00F56:  CLRF   x37
00F58:  CLRF   x36
00F5A:  CLRF   x35
00F5C:  MOVLW  14
00F5E:  MOVWF  x34
00F60:  MOVLB  0
00F62:  CALL   0CC0
....................    output_high(flash_stream.cs_pin);
00F66:  MOVFF  1A6,22A
00F6A:  MOVLW  01
00F6C:  MOVLB  2
00F6E:  MOVWF  x2B
00F70:  MOVLW  0F
00F72:  MOVWF  x2D
00F74:  MOVLW  89
00F76:  MOVWF  x2C
00F78:  MOVLB  0
00F7A:  CALL   0BAC
00F7E:  MOVFF  1A6,22A
00F82:  MOVLB  2
00F84:  CLRF   x2B
00F86:  MOVLW  0F
00F88:  MOVWF  x2D
00F8A:  MOVLW  92
00F8C:  MOVWF  x2C
00F8E:  MOVLB  0
00F90:  CALL   0BAC
....................    //fprintf(PC,"Read ID:%02X", read_id_data.fields.manufacturer_id);
....................    #ifdef MT25Q_DEBUG
....................       fprintf(PC,"Read ID:");
.................... 
....................    #endif
....................    //chip id check
....................    if(read_id_data.fields.manufacturer_id == MANUFACTURER_ID_MICRON){  
00F94:  MOVLB  1
00F96:  MOVF   xA8,W
00F98:  SUBLW  20
00F9A:  BTFSC  FD8.2
00F9C:  BRA    0FA4
00F9E:  MOVLB  0
00FA0:  GOTO   0FB2
00FA4:  MOVLB  0
....................       #ifdef MT25Q_DEBUG
....................          fprintf(PC,"flash connect OK\r\n");
....................       #endif
....................       return true;
00FA6:  MOVLW  01
00FA8:  MOVWF  01
00FAA:  GOTO   0FBA
....................    }
00FAE:  GOTO   0FBA
....................    else{
....................       #ifdef MT25Q_DEBUG
....................          fprintf(PC,"flash not connect\r\n");
....................       #endif
....................       return false;
00FB2:  MOVLW  00
00FB4:  MOVWF  01
00FB6:  GOTO   0FBA
....................    }
00FBA:  RETURN 0
.................... }
.................... 
.................... #include "../../lib/tool/calc_tools.c"
.................... unsigned int8 calc_crc8(unsigned int8 *frame, unsigned int8 payload_size)
.................... {
....................    if (payload_size <= 0) return 0;
*
01ABA:  MOVLB  2
01ABC:  MOVF   x44,F
01ABE:  BTFSC  FD8.2
01AC0:  BRA    1AC8
01AC2:  MOVLB  0
01AC4:  GOTO   1AD2
01AC8:  MOVLB  0
01ACA:  MOVLW  00
01ACC:  MOVWF  01
01ACE:  GOTO   1B24
.................... 
....................    unsigned int8 crc = *frame++;
01AD2:  MOVLB  2
01AD4:  MOVF   x43,W
01AD6:  MOVWF  03
01AD8:  MOVF   x42,W
01ADA:  INCF   x42,F
01ADC:  BTFSC  FD8.2
01ADE:  INCF   x43,F
01AE0:  MOVWF  FE9
01AE2:  MOVFF  03,FEA
01AE6:  MOVFF  FEF,245
01AEA:  MOVLB  0
....................    while (--payload_size > 0)
01AEC:  MOVLB  2
01AEE:  DECF   x44,F
01AF0:  MOVF   x44,F
01AF2:  BTFSS  FD8.2
01AF4:  BRA    1AFC
01AF6:  MOVLB  0
01AF8:  GOTO   1B1C
01AFC:  MOVLB  0
....................       crc ^= *frame++;
01AFE:  MOVLB  2
01B00:  MOVF   x43,W
01B02:  MOVWF  03
01B04:  MOVF   x42,W
01B06:  INCF   x42,F
01B08:  BTFSC  FD8.2
01B0A:  INCF   x43,F
01B0C:  MOVWF  FE9
01B0E:  MOVFF  03,FEA
01B12:  MOVF   FEF,W
01B14:  XORWF  x45,F
01B16:  MOVLB  0
01B18:  GOTO   1AEC
.................... 
....................    return crc;
01B1C:  MOVLB  2
01B1E:  MOVF   x45,W
01B20:  MOVWF  01
01B22:  MOVLB  0
01B24:  RETURN 0
.................... }
.................... 
.................... int1 is_crc_valid(unsigned int8 *frame, int8 payload_size)
.................... {
....................    unsigned int8 received_crc = frame[payload_size - 1]; // CRC is the last byte
....................    unsigned int8 calculated_crc = calc_crc8(frame, payload_size - 1);
....................    return (received_crc == calculated_crc);
.................... }
.................... 
.................... void int32_to_be_array(int32 value, int8 *buf, int8 index)
.................... {
....................     buf[index + 0] = (int8)(value >> 24);   // MSB
....................     buf[index + 1] = (int8)(value >> 16);
....................     buf[index + 2] = (int8)(value >>  8);
....................     buf[index + 3] = (int8)(value      );   // LSB
.................... }
.................... 
.................... int32 lsb_array_to_int32(int8 *buf, int8 index)
.................... {
....................     return ((int32)buf[index + 0] <<  0) |
....................            ((int32)buf[index + 1] <<  8) |
....................            ((int32)buf[index + 2] << 16) |
....................            ((int32)buf[index + 3] << 24);
.................... }
.................... 
.................... 
.................... int32 msb_array_to_int32(int8 *buf, int8 index)
.................... {
....................     return ((int32)buf[index + 0] << 24) |
....................            ((int32)buf[index + 1] << 16) |
....................            ((int32)buf[index + 2] <<  8) |
....................            ((int32)buf[index + 3]);
.................... }
.................... 
.................... unsigned int32 int32_lsb_to_msb(unsigned int32 value)
.................... {
....................     return ((value & 0x000000FF) << 24) |
....................            ((value & 0x0000FF00) << 8)  |
....................            ((value & 0x00FF0000) >> 8)  |
....................            ((value & 0xFF000000) >> 24);
.................... }
.................... 
.................... unsigned int32 int32_msb_to_lsb(unsigned int32 value)
.................... {
....................     return ((value & 0xFF000000) >> 24) |
....................            ((value & 0x00FF0000) >> 8)  |
....................            ((value & 0x0000FF00) << 8)  |
....................            ((value & 0x000000FF) << 24);
.................... }
.................... // End of file
.................... 
.................... #include "../../lib/tool/smf_queue.c"
.................... #include "smf_queue.h"
.................... #ifndef SMF_QUEUE_H
.................... #define SMF_QUEUE_H
.................... 
.................... typedef enum {
....................    ENUM_SMF_WRITE,    // SMF書き込み操作
....................    ENUM_SMF_READ,     // SMF読み込み操作
....................    ENUM_SMF_ERASE     // SMF消去操作
.................... } FunctionType;
.................... 
.................... // SMF書き込みモード
.................... typedef enum {
....................    SMF_WRITE_OVERWRITE = 0x00,  // 上書きモード
....................    SMF_WRITE_APPEND = 0x01,     // 追記モード
....................    SMF_WRITE_CIRCULAR = 0x02    // 循環書き込みモード（endまで行ったらstartに戻る）
.................... } SmfWriteMode;
.................... 
.................... // データソースタイプ
.................... typedef enum {
....................    SOURCE_MISF_UNCOPIED = 0x00, // MISF未コピーデータを転送
....................    SOURCE_MISF_MANUAL = 0x01    // MISF指定アドレス・サイズを転送
.................... } DataSourceType;
.................... 
.................... 
.................... typedef enum{
....................    CIGS_DATA_TABLE,
....................    CIGS_PICLOG_DATA,
....................    CIGS_ENVIRO_DATA,
....................    CIGS_IV_HEADER,
....................    CIGS_IV_DATA,
.................... } MissionID;
.................... 
.................... 
.................... 
.................... typedef struct {
....................    int32 start_address;
....................    int32 end_address;
.................... } SmfAddressStruct;
.................... 
.................... typedef struct{
....................    int32 misf_start_address;
....................    int32 misf_size;
.................... } SmfWriteStruct;
.................... 
.................... typedef struct {
....................     MissionID mission_id;                // ミッションID
....................     FunctionType func_type;         // 操作タイプ
....................     SmfWriteMode write_mode;        // 書き込みモード（書き込み時のみ）
....................     DataSourceType source_type;     // データソースタイプ
....................     int32 misf_start_addr;          // MISF手動指定時の開始アドレス
....................     int32 misf_size;                // MISF手動指定時のサイズ
.................... } FlashOperationStruct;
.................... 
.................... #define SMF_QUEUE_SIZE 16
.................... typedef struct {
....................    FlashOperationStruct entries[SMF_QUEUE_SIZE];  // キューエントリー配列
....................    int8 head_index;                               // 取り出し位置（読み取りインデックス）
....................    int8 tail_index;                               // 追加位置（書き込みインデックス）
.................... } FlashQueueStruct;
.................... 
.................... 
.................... 
.................... // _____________________ values _________________
.................... 
.................... volatile FlashQueueStruct flash_queue = {0};
.................... 
.................... // MISF/SMF統合管理インスタンス（ミッション別）
.................... //volatile MisfSmfManagerStruct misf_smf_manager[8] = {0}; // 最大8ミッション対応
.................... 
.................... 
.................... // ___________________ functions ________________
.................... 
.................... // MISF/SMF管理関数
.................... void init_misf_smf_manager(int8 mission_id, int32 misf_start, int32 misf_size, int32 smf_start, int32 smf_size);
.................... void update_misf_data(int8 mission_id, int32 data_size);
.................... void process_misf_to_smf_transfer(int8 mission_id);
.................... int32 get_uncopied_data_size(int8 mission_id);
.................... void mark_data_copied(int8 mission_id, int32 copied_size);
.................... int1 is_misf_full(int8 mission_id);
.................... //MisfSmfManagerStruct* get_misf_smf_manager(int8 mission_id);
.................... 
.................... void enqueue_flash_operation(FlashOperationStruct *data);
.................... 
.................... FlashOperationStruct *dequeue_flash_operation();
.................... 
.................... FlashOperationStruct *peek_flash_operation(void);
.................... 
.................... void remove_flash_operation(void);
.................... 
.................... int1 is_empty_flash_queue(void);
.................... 
.................... SmfAddressStruct get_smf_address_struct(MissionID mission_id);
.................... 
.................... // 便利な関数
.................... void enqueue_uncopied_data(int8 mission_id, SmfWriteMode write_mode);
.................... void enqueue_manual_data(int8 mission_id, int32 misf_addr, int32 size, SmfWriteMode write_mode);
.................... void enqueue_read_data(int32 smf_addr, int32 size);
.................... void enqueue_erase_data(int32 smf_addr, int32 size);
.................... 
.................... // 統合管理対応の便利な関数
.................... void enqueue_auto_transfer(int8 mission_id);  // 未コピーデータの自動転送
.................... void complete_transfer_and_update_counter(int8 mission_id, int32 transferred_size);  // 転送完了とカウンタ更新
.................... 
.................... SmfWriteStruct get_smf_write_struct(MissionID mission_id);
.................... #endif   //SMF_QUEUE_H
.................... 
.................... #include "mmj_smf_memorymap.h"
.................... #ifndef SMF_MEMORY_MAP_H
.................... #define SMF_MEMORY_MAP_H
.................... 
.................... /*
....................  * Auto-generated Memory Map Header
....................  * Generated from: MMJ_ICD_021_IICD_06_Memory_map.xlsx
....................  * Generated at: 2025-07-27 20:54:05
....................  */
.................... 
.................... #ifndef PACKET_SIZE
.................... #define PACKET_SIZE 64
.................... #endif
.................... 
.................... typedef struct {
....................     unsigned int32 used_size;
....................     unsigned int8 loop_counter;
....................     unsigned int8 reserved[3];
.................... } partition_header_t;
.................... 
.................... // payloadに複数のpartition_headerを並べる
.................... typedef union {
....................     unsigned int8 bytes[PACKET_SIZE];  // 生データアクセス用
.................... 
....................     struct {
....................         union {
....................             struct {
....................                 partition_header_t piclog;
....................                 partition_header_t enviroment;
....................                 partition_header_t iv_head;
....................                 partition_header_t iv_data;
....................             }cigs;
.................... 
....................             struct {
....................                 partition_header_t piclog;
....................                 partition_header_t enviroment;
....................                 partition_header_t iv_head;
....................                 partition_header_t iv_data;
....................             } satolab;
....................             // フラットにアクセスしたいとき用
....................             partition_header_t headers[(PACKET_SIZE - 1) / sizeof(partition_header_t)];
....................         } payload;
.................... 
....................         unsigned int8 crc;  // 最後の1バイト
....................     };
.................... } smf_data_table_t;
.................... 
.................... // Base Memory Configuration
.................... #define SMF_SIZE 0x08000000 // 128MB
.................... #define SMF_START_ADDRESS 0x00000000
.................... #define SMF_END_ADDRESS   0x07FFFFFF
.................... 
.................... 
.................... // ===== Device IDs from メモリマップ  =====
.................... #define MAIN_DEVICE_ID 0x10
.................... #define COM_DEVICE_ID 0x20
.................... #define APRS_DEVICE_ID 0x60
.................... #define CAM_DEVICE_ID 0x70
.................... #define CHO_DEVICE_ID 0x80
.................... #define SATO_DEVICE_ID 0x90
.................... #define BHU_DEVICE_ID 0xB0
.................... #define CIGS_DEVICE_ID 0xC0
.................... 
.................... // ===== Data IDs from メモリマップ  =====
.................... #define ID_MAIN_ADDRESS_AREA 0x10
.................... #define ID_MAIN_ADDRESS 0x11
.................... #define ID_MAIN_RESERVED_COMMAND 0x12
.................... #define ID_MAIN_HK 0x14
.................... #define ID_MAIN_HSHK 0x15
.................... #define ID_MAIN_LSHK 0x16
.................... #define ID_MAIN_PIC_LOG 0x1F
.................... #define ID_COM_RSSI_TRX_T_LOG 0x20
.................... #define ID_COM_PIC_LOG 0x2F
.................... #define ID_APRS_PIC_DATA_TABLE 0x60
.................... #define ID_APRS_APRS 0x61
.................... #define ID_APRS_IN_VEHICLE_COMMUNICATION_MISSION 0x62
.................... #define ID_APRS_TLE_DATA 0x63
.................... #define ID_APRS_ECOSYSTEM 0x67
.................... #define ID_APRS_PIC_LOG 0x6F
.................... #define ID_CAM_CHIBANY_THUMBNAIL_IMAGE_DATA_SIZE 0x70
.................... #define ID_CAM_CHIBANY_IMAGE_DATA_SIZE 0x71
.................... #define ID_CAM_CHIBANY_VIDEO_SIZE 0x72
.................... #define ID_CAM_POLLEN_THUMBNAIL_IMAGE_DATA_SIZE 0x73
.................... #define ID_CAM_POLEN_IMAGE_DATA_SIZE 0x74
.................... #define ID_CAM_POLLEN_VIDEO_DATA_SIZE 0x75
.................... #define ID_CAM_MCU_LOG_DATA_SIZE 0x7F
.................... #define ID_CHO_GREECE_THUMBNAIL_IMAGE_DATA_SIZE 0x80
.................... #define ID_CHO_GREECE_IMAGE_DATA_SIZE 0x81
.................... #define ID_CHO_SENSOR_DATA_SIZE 0x82
.................... #define ID_CHO_MCU_LOG_DATA_SIZE 0x8F
.................... #define ID_SATO_PIC_DATA_TABLE 0x90
.................... #define ID_SATO_CYCLE_MODE_DATA 0x91
.................... #define ID_SATO_RANDOM_MODE_DATA 0x92
.................... #define ID_SATO_MULTIPLE_POINT_MODE_DATA 0x93
.................... #define ID_SATO_VOLTAGE_SWEEP_MODE_DATA 0x94
.................... #define ID_SATO_PIC_LOG 0x9F
.................... #define ID_BHU_FOREST_THUMBNAIL_IMAGE_DATA_SIZE 0xB0
.................... #define ID_BHU_FOREST_IMAGE_DATA_SIZE 0xB1
.................... #define ID_BHU_SENSOR_DATA_DATA_SIZE 0xB2
.................... #define ID_BHU_MCU_LOG_DATA_SIZE 0xBF
.................... #define ID_CIGS_DATA_TABLE 0xC0
.................... #define ID_CIGS_MEASURE_DATA 0xC1
.................... #define ID_CIGS_PICLOG 0xCF
.................... 
.................... // ===== Memory Address Mappings from メモリマップ  =====
.................... #define MAIN_ADDRESS_AREA_START_ADDRESS 0x00000000
.................... #define MAIN_ADDRESS_AREA_END_ADDRESS 0x00000FFF
.................... #define MAIN_ADDRESS_START_ADDRESS 0x00001000
.................... #define MAIN_ADDRESS_END_ADDRESS 0x00001FFF
.................... #define MAIN_RESERVED_COMMAND_START_ADDRESS 0x00002000
.................... #define MAIN_RESERVED_COMMAND_END_ADDRESS 0x00003FFF
.................... #define MAIN_HK_START_ADDRESS 0x00004000
.................... #define MAIN_HK_END_ADDRESS 0x02003FFF
.................... #define MAIN_HSHK_START_ADDRESS 0x02004000
.................... #define MAIN_HSHK_END_ADDRESS 0x02103FFF
.................... #define MAIN_LSHK_START_ADDRESS 0x02104000
.................... #define MAIN_LSHK_END_ADDRESS 0x02303FFF
.................... #define MAIN_PIC_LOG_START_ADDRESS 0x02304000
.................... #define MAIN_PIC_LOG_END_ADDRESS 0x0240FFFF
.................... #define COM_RSSI_TRX_T_LOG_START_ADDRESS 0x02800000
.................... #define COM_RSSI_TRX_T_LOG_END_ADDRESS 0x028FFFFF
.................... #define COM_PIC_LOG_START_ADDRESS 0x02900000
.................... #define COM_PIC_LOG_END_ADDRESS 0x029FFFFF
.................... #define APRS_PIC_DATA_TABLE_START_ADDRESS 0x02C00000
.................... #define APRS_PIC_DATA_TABLE_END_ADDRESS 0x02C00FFF
.................... #define APRS_APRS_START_ADDRESS 0x02C01000
.................... #define APRS_APRS_END_ADDRESS 0x02D00FFF
.................... #define APRS_IN_VEHICLE_COMMUNICATION_MISSION_START_ADDRESS 0x02D01000
.................... #define APRS_IN_VEHICLE_COMMUNICATION_MISSION_END_ADDRESS 0x02D01FFF
.................... #define APRS_TLE_DATA_START_ADDRESS 0x02D02000
.................... #define APRS_TLE_DATA_END_ADDRESS 0x02D02FFF
.................... #define APRS_ECOSYSTEM_START_ADDRESS 0x02D03000
.................... #define APRS_ECOSYSTEM_END_ADDRESS 0x02E02FFF
.................... #define APRS_PIC_LOG_START_ADDRESS 0x02E03000
.................... #define APRS_PIC_LOG_END_ADDRESS 0x02E03FFF
.................... #define CAM_CHIBANY_THUMBNAIL_IMAGE_DATA_SIZE_START_ADDRESS 0x02F10000
.................... #define CAM_CHIBANY_THUMBNAIL_IMAGE_DATA_SIZE_END_ADDRESS 0x02F10FFF
.................... #define CAM_CHIBANY_IMAGE_DATA_SIZE_START_ADDRESS 0x03311000
.................... #define CAM_CHIBANY_IMAGE_DATA_SIZE_END_ADDRESS 0x03311FFF
.................... #define CAM_CHIBANY_VIDEO_SIZE_START_ADDRESS 0x03712000
.................... #define CAM_CHIBANY_VIDEO_SIZE_END_ADDRESS 0x03712FFF
.................... #define CAM_POLLEN_THUMBNAIL_IMAGE_DATA_SIZE_START_ADDRESS 0x03B13000
.................... #define CAM_POLLEN_THUMBNAIL_IMAGE_DATA_SIZE_END_ADDRESS 0x03B13FFF
.................... #define CAM_POLEN_IMAGE_DATA_SIZE_START_ADDRESS 0x03F14000
.................... #define CAM_POLEN_IMAGE_DATA_SIZE_END_ADDRESS 0x03F14FFF
.................... #define CAM_POLLEN_VIDEO_DATA_SIZE_START_ADDRESS 0x04315000
.................... #define CAM_POLLEN_VIDEO_DATA_SIZE_END_ADDRESS 0x04315FFF
.................... #define CAM_MCU_LOG_DATA_SIZE_START_ADDRESS 0x04320000
.................... #define CAM_MCU_LOG_DATA_SIZE_END_ADDRESS 0x04320FFF
.................... #define CHO_GREECE_THUMBNAIL_IMAGE_DATA_SIZE_START_ADDRESS 0x04440000
.................... #define CHO_GREECE_THUMBNAIL_IMAGE_DATA_SIZE_END_ADDRESS 0x04440FFF
.................... #define CHO_GREECE_IMAGE_DATA_SIZE_START_ADDRESS 0x04451000
.................... #define CHO_GREECE_IMAGE_DATA_SIZE_END_ADDRESS 0x04451FFF
.................... #define CHO_SENSOR_DATA_SIZE_START_ADDRESS 0x04852000
.................... #define CHO_SENSOR_DATA_SIZE_END_ADDRESS 0x04852FFF
.................... #define CHO_MCU_LOG_DATA_SIZE_START_ADDRESS 0x04863000
.................... #define CHO_MCU_LOG_DATA_SIZE_END_ADDRESS 0x04863FFF
.................... #define SATO_PIC_DATA_TABLE_START_ADDRESS 0x04980000
.................... #define SATO_PIC_DATA_TABLE_END_ADDRESS 0x04980FFF
.................... #define SATO_CYCLE_MODE_DATA_START_ADDRESS 0x04981000
.................... #define SATO_CYCLE_MODE_DATA_END_ADDRESS 0x04A80FFF
.................... #define SATO_RANDOM_MODE_DATA_START_ADDRESS 0x04A81000
.................... #define SATO_RANDOM_MODE_DATA_END_ADDRESS 0x04E80FFF
.................... #define SATO_MULTIPLE_POINT_MODE_DATA_START_ADDRESS 0x04E81000
.................... #define SATO_MULTIPLE_POINT_MODE_DATA_END_ADDRESS 0x04F80FFF
.................... #define SATO_VOLTAGE_SWEEP_MODE_DATA_START_ADDRESS 0x04F81000
.................... #define SATO_VOLTAGE_SWEEP_MODE_DATA_END_ADDRESS 0x05080FFF
.................... #define SATO_PIC_LOG_START_ADDRESS 0x05081000
.................... #define SATO_PIC_LOG_END_ADDRESS 0x05081FFF
.................... #define BHU_FOREST_THUMBNAIL_IMAGE_DATA_SIZE_START_ADDRESS 0x05190000
.................... #define BHU_FOREST_THUMBNAIL_IMAGE_DATA_SIZE_END_ADDRESS 0x05190FFF
.................... #define BHU_FOREST_IMAGE_DATA_SIZE_START_ADDRESS 0x05591000
.................... #define BHU_FOREST_IMAGE_DATA_SIZE_END_ADDRESS 0x05591FFF
.................... #define BHU_SENSOR_DATA_DATA_SIZE_START_ADDRESS 0x05992000
.................... #define BHU_SENSOR_DATA_DATA_SIZE_END_ADDRESS 0x05992FFF
.................... #define BHU_MCU_LOG_DATA_SIZE_START_ADDRESS 0x06993000
.................... #define BHU_MCU_LOG_DATA_SIZE_END_ADDRESS 0x06993FFF
.................... #define CIGS_DATA_TABLE_START_ADDRESS 0x06AA0000
.................... #define CIGS_DATA_TABLE_END_ADDRESS 0x06AA0FFF
.................... #define CIGS_PICLOG_START_ADDRESS 0x06AA1000
.................... #define CIGS_PICLOG_END_ADDRESS 0x06AA1FFF
.................... #define CIGS_ENVIRO_START_ADDRESS 0x06AA2000
.................... #define CIGS_ENVIRO_END_ADDRESS 0x06AA2FFF
.................... #define CIGS_IV1_HEADER_START_ADDRESS 0x06B42000
.................... #define CIGS_IV1_HEADER_END_ADDRESS 0x06BE1FFF
.................... #define CIGS_IV1_DATA_START_ADDRESS 0x06BE2000
.................... #define CIGS_IV1_DATA_END_ADDRESS 0x06FE2FFF
.................... #define CIGS_IV2_HEADER_START_ADDRESS 0x06FE3000
.................... #define CIGS_IV2_HEADER_END_ADDRESS 0x07082FFF
.................... #define CIGS_IV2_DATA_START_ADDRESS 0x07083000
.................... #define CIGS_IV2_DATA_END_ADDRESS 0x07483FFF
.................... 
.................... #endif // SMF_MEMORY_MAP_H
.................... 
.................... 
.................... 
.................... void enqueue_flash_operation(FlashOperationStruct *data)
.................... {   
....................    fprintf(PC, "Enqueue Flash Operation\r\n");
....................    int8 next_tail = (flash_queue.tail_index + 1) % SMF_QUEUE_SIZE;
.................... 
....................    if(next_tail == flash_queue.head_index)
....................       printf("Flash queue is full!!!\r\n");
....................       
....................    else
....................    {
....................       flash_queue.entries[flash_queue.tail_index].mission_id = data->mission_id;
....................       flash_queue.entries[flash_queue.tail_index].func_type  = data->func_type;
....................       flash_queue.entries[flash_queue.tail_index].write_mode = data->write_mode;
....................       flash_queue.entries[flash_queue.tail_index].source_type = data->source_type;
....................       flash_queue.entries[flash_queue.tail_index].misf_start_addr = data->misf_start_addr;
....................       flash_queue.entries[flash_queue.tail_index].misf_size = data->misf_size;
....................       flash_queue.tail_index = next_tail;
....................    }
.................... 
.................... 
.................... }
.................... 
.................... 
.................... FlashOperationStruct *dequeue_flash_operation()
.................... {
....................    if (flash_queue.head_index == flash_queue.tail_index)
....................    {
....................       printf("Flash queue is empty\r\n");
....................       return 0x00;
....................    }
....................    else
....................    {
....................       int8 current_head = flash_queue.head_index;
....................       flash_queue.head_index = (flash_queue.head_index + 1) % SMF_QUEUE_SIZE;
.................... 
.................... 
....................       return &flash_queue.entries[current_head];
....................    }
.................... }
.................... 
.................... int1 is_empty_flash_queue(void)
.................... {
....................    return flash_queue.head_index == flash_queue.tail_index;
.................... }
.................... 
.................... 
.................... SmfAddressStruct get_smf_address_struct(MissionID mission_id)
.................... {
....................    SmfAddressStruct mis_struct = {0};
.................... 
....................    if (mission_id == CIGS_DATA_TABLE)
....................    {
....................       mis_struct.start_address = CIGS_DATA_TABLE_START_ADDRESS;
....................       mis_struct.end_address   = CIGS_DATA_TABLE_END_ADDRESS;
....................    }
....................    else if (mission_id == CIGS_PICLOG_DATA)
....................    {
....................       mis_struct.start_address = CIGS_PICLOG_START_ADDRESS;
....................       mis_struct.end_address   = CIGS_PICLOG_END_ADDRESS;
....................    }
....................    else if (mission_id == CIGS_ENVIRO_DATA)
....................    {
....................       mis_struct.start_address = CIGS_PICLOG_START_ADDRESS;
....................       mis_struct.end_address   = CIGS_PICLOG_END_ADDRESS;
....................    }
....................    else if (mission_id == CIGS_IV_HEADER)
....................    {
....................       mis_struct.start_address = CIGS_IV1_HEADER_START_ADDRESS;
....................       mis_struct.end_address   = CIGS_IV1_HEADER_END_ADDRESS;
....................    }
....................    else if (mission_id == CIGS_IV_DATA)
....................    {
....................       mis_struct.start_address = CIGS_IV1_DATA_START_ADDRESS;
....................       mis_struct.end_address   = CIGS_IV1_DATA_END_ADDRESS;
....................    }
....................    return mis_struct;
.................... }
.................... // End of file
.................... 
.................... #include "../../lib/communication/communication.c"
.................... // #include "communication.h"  // ヘッダーファイルから自動的にインクルードされるため不要
.................... #include "mission_tools.h"
.................... #ifndef MISSION_TOOLS_H
.................... #define MISSION_TOOLS_H
.................... 
.................... #include "communication_driver.h"
.................... 
.................... 
.................... // ________________ fuctions ____________
.................... 
.................... // Check and reply to messages received from BOSS PIC
.................... void check_and_respond_to_boss();
.................... 
.................... // Request using SMF to BOSS PIC
.................... // !!!After use, you must call `void finished_use_smf()`
.................... int1 req_use_smf();
.................... 
.................... // Call after using SMF
.................... void finished_use_smf();
.................... //unsigned int8 calc_crc8(unsigned int8 frame[], int8 payload_size);
.................... 
.................... 
.................... #endif
.................... 
.................... 
.................... #include "../tool/calc_tools.h"
.................... #ifndef CALC_TOOLS_H
.................... #define CALC_TOOLS_H
....................  
.................... unsigned int8 calc_crc8(unsigned int8 *frame, unsigned int8 payload_size);
.................... int1 is_crc_valid(unsigned int8 *frame, int8 payload_size);
.................... void int32_to_be_array(int32 value, int8 *buf, int8 index);
.................... int32 lsb_array_to_int32(int8 *buf, int8 index);
.................... unsigned int32 lsb_to_msb(unsigned int32 value);
.................... unsigned int32 msb_to_lsb(unsigned int32 value);
.................... 
.................... 
.................... #endif // CALC_TOOLS_H  
.................... 
.................... 
.................... Command make_receive_command(unsigned int8 receive_signal[], int8 receive_signal_size)
.................... {
....................    Command command = {0, 0, FALSE,{0x00}};
*
025D2:  MOVLB  1
025D4:  CLRF   x6D
025D6:  CLRF   x6E
025D8:  CLRF   x6F
025DA:  CLRF   x70
025DC:  CLRF   x71
025DE:  CLRF   x72
025E0:  CLRF   x73
025E2:  CLRF   x74
025E4:  CLRF   x75
025E6:  CLRF   x76
025E8:  CLRF   x77
025EA:  CLRF   x78
....................    fprintf(PC, "\r\nStart make_receive_command\r\n");
025EC:  MOVLW  9A
025EE:  MOVWF  FF6
025F0:  MOVLW  01
025F2:  MOVWF  FF7
025F4:  MOVLW  00
025F6:  MOVWF  FF8
025F8:  MOVLB  0
025FA:  CALL   0A42
....................    fprintf(PC, "\t[BOSS] >>> ");
025FE:  MOVLW  BA
02600:  MOVWF  FF6
02602:  MOVLW  01
02604:  MOVWF  FF7
02606:  MOVLW  00
02608:  MOVWF  FF8
0260A:  CALL   0A42
....................    for (int8 i = 0; i < receive_signal_size; i++)
0260E:  MOVLB  1
02610:  CLRF   x79
02612:  MOVLB  0
02614:  MOVLB  1
02616:  MOVF   x6C,W
02618:  SUBWF  x79,W
0261A:  BTFSS  FD8.0
0261C:  BRA    2624
0261E:  MOVLB  0
02620:  GOTO   265C
02624:  MOVLB  0
....................       fprintf(PC, "%X ", receive_signal[i]);
02626:  MOVLB  1
02628:  MOVF   x79,W
0262A:  ADDWF  x6A,W
0262C:  MOVWF  FE9
0262E:  MOVLW  00
02630:  ADDWFC x6B,W
02632:  MOVWF  FEA
02634:  MOVFF  FEF,180
02638:  MOVFF  180,185
0263C:  MOVLW  37
0263E:  MOVWF  x86
02640:  MOVLB  0
02642:  CALL   13BA
02646:  MOVLW  20
02648:  MOVLB  2
0264A:  MOVWF  x10
0264C:  MOVLB  0
0264E:  CALL   09F0
02652:  MOVLB  1
02654:  INCF   x79,F
02656:  MOVLB  0
02658:  GOTO   2614
....................    fprintf(PC, "\r\n");
0265C:  MOVLW  0D
0265E:  MOVLB  2
02660:  MOVWF  x10
02662:  MOVLB  0
02664:  CALL   09F0
02668:  MOVLW  0A
0266A:  MOVLB  2
0266C:  MOVWF  x10
0266E:  MOVLB  0
02670:  CALL   09F0
.................... 
....................    int8 frame_start_position = trim_receive_signal_header(receive_signal, receive_signal_size);
02674:  MOVFF  16B,181
02678:  MOVFF  16A,180
0267C:  MOVFF  16C,182
02680:  GOTO   22CA
02684:  MOVFF  01,17A
....................    if (frame_start_position == -1)
02688:  MOVLB  1
0268A:  MOVF   x7A,W
0268C:  SUBLW  FF
0268E:  BTFSC  FD8.2
02690:  BRA    2698
02692:  MOVLB  0
02694:  GOTO   26A6
02698:  MOVLB  0
....................       return command;
0269A:  MOVLW  6D
0269C:  MOVWF  01
0269E:  MOVLW  01
026A0:  MOVWF  02
026A2:  GOTO   27C8
....................       
....................    unsigned int8 *frame = &receive_signal[frame_start_position];
....................    
....................    int8 frame_id = frame[0] & 0x0F;
....................    int8 content_size = get_content_size(frame_id);
026A6:  MOVLB  1
026A8:  MOVF   x7A,W
026AA:  ADDWF  x6A,W
026AC:  MOVWF  01
026AE:  MOVLW  00
026B0:  ADDWFC x6B,W
026B2:  MOVWF  03
026B4:  MOVF   01,W
026B6:  MOVWF  x7B
026B8:  MOVFF  03,17C
026BC:  MOVF   x7B,W
026BE:  MOVWF  FE9
026C0:  MOVF   x7C,W
026C2:  MOVWF  FEA
026C4:  MOVF   FEF,W
026C6:  ANDLW  0F
026C8:  MOVWF  x7D
026CA:  MOVFF  17D,180
026CE:  MOVLB  0
026D0:  GOTO   2372
026D4:  MOVFF  01,17E
....................    if (content_size == -1)
026D8:  MOVLB  1
026DA:  MOVF   x7E,W
026DC:  SUBLW  FF
026DE:  BTFSC  FD8.2
026E0:  BRA    26E8
026E2:  MOVLB  0
026E4:  GOTO   26F6
026E8:  MOVLB  0
....................       return command;
026EA:  MOVLW  6D
026EC:  MOVWF  01
026EE:  MOVLW  01
026F0:  MOVWF  02
026F2:  GOTO   27C8
....................       
....................    unsigned int8 receive_frame_size = receive_signal_size - frame_start_position;
026F6:  MOVLB  1
026F8:  MOVF   x7A,W
026FA:  SUBWF  x6C,W
026FC:  MOVWF  x7F
....................    
....................    if (!check_crc(frame, receive_frame_size))
026FE:  MOVFF  17C,181
02702:  MOVFF  17B,180
02706:  MOVFF  17F,182
0270A:  MOVLB  0
0270C:  GOTO   242E
02710:  MOVF   01,F
02712:  BTFSS  FD8.2
02714:  GOTO   2724
....................       return command;
02718:  MOVLW  6D
0271A:  MOVWF  01
0271C:  MOVLW  01
0271E:  MOVWF  02
02720:  GOTO   27C8
....................    
....................    if(!check_device_id((frame[0] & 0xF0) >> 4))
02724:  MOVLB  1
02726:  MOVF   x7B,W
02728:  MOVWF  FE9
0272A:  MOVF   x7C,W
0272C:  MOVWF  FEA
0272E:  MOVF   FEF,W
02730:  ANDLW  F0
02732:  MOVWF  00
02734:  SWAPF  00,W
02736:  MOVWF  x80
02738:  MOVLW  0F
0273A:  ANDWF  x80,F
0273C:  MOVFF  180,181
02740:  MOVLB  0
02742:  GOTO   2518
02746:  MOVF   01,F
02748:  BTFSS  FD8.2
0274A:  GOTO   275A
....................       return command;
0274E:  MOVLW  6D
02750:  MOVWF  01
02752:  MOVLW  01
02754:  MOVWF  02
02756:  GOTO   27C8
.................... 
....................    command.frame_id = frame_id;
0275A:  MOVFF  17D,16D
....................    memcpy(command.content, &frame[1], receive_frame_size-2); // '2' is for Decive ID, Frame ID and CRC
0275E:  MOVLW  01
02760:  MOVLB  1
02762:  ADDWF  x7B,W
02764:  MOVWF  01
02766:  MOVLW  00
02768:  ADDWFC x7C,W
0276A:  MOVWF  03
0276C:  MOVF   01,W
0276E:  MOVWF  x80
02770:  MOVFF  03,181
02774:  MOVLW  02
02776:  SUBWF  x7F,W
02778:  MOVWF  x82
0277A:  MOVLW  01
0277C:  MOVWF  FEA
0277E:  MOVLW  70
02780:  MOVWF  FE9
02782:  MOVFF  181,FE2
02786:  MOVFF  180,FE1
0278A:  MOVF   x82,W
0278C:  MOVWF  01
0278E:  BTFSS  FD8.2
02790:  BRA    2798
02792:  MOVLB  0
02794:  GOTO   27A4
02798:  MOVLB  0
0279A:  MOVFF  FE6,FEE
0279E:  DECFSZ 01,F
027A0:  GOTO   279A
....................    command.size = receive_frame_size-2;
027A4:  MOVLW  02
027A6:  MOVLB  1
027A8:  SUBWF  x7F,W
027AA:  MOVWF  x6E
....................    command.is_exist = TRUE;
027AC:  BSF    x6F.0
....................    //fprintf(PC, "\t-> Frame ID: %X\r\n", command.frame_id);
....................    //fprintf(PC, "\t-> Content size: %d\r\n", command.size);
....................    //fprintf(PC, "\t-> is_exist: %d\r\n", command.is_exist);
....................    fprintf(PC, "End make_recive_command\r\n\r\n");
027AE:  MOVLW  C8
027B0:  MOVWF  FF6
027B2:  MOVLW  01
027B4:  MOVWF  FF7
027B6:  MOVLW  00
027B8:  MOVWF  FF8
027BA:  MOVLB  0
027BC:  CALL   0A42
....................    return command;
027C0:  MOVLW  6D
027C2:  MOVWF  01
027C4:  MOVLW  01
027C6:  MOVWF  02
027C8:  GOTO   3EC2 (RETURN)
.................... }
.................... 
.................... static int8 trim_receive_signal_header(unsigned int8 receive_signal[], int8 receive_signal_size)
*
022CA:  MOVLB  1
022CC:  CLRF   x83
.................... {
....................    int8 i = 0;
....................    for(i = 0; i < receive_signal_size-1; i++) // if SFD find 
022CE:  CLRF   x83
022D0:  MOVLB  0
022D2:  MOVLW  01
022D4:  MOVLB  1
022D6:  SUBWF  x82,W
022D8:  SUBWF  x83,W
022DA:  BTFSS  FD8.0
022DC:  BRA    22E4
022DE:  MOVLB  0
022E0:  GOTO   231C
022E4:  MOVLB  0
....................       if(receive_signal[i] == SFD)
022E6:  MOVLB  1
022E8:  MOVF   x83,W
022EA:  ADDWF  x80,W
022EC:  MOVWF  FE9
022EE:  MOVLW  00
022F0:  ADDWFC x81,W
022F2:  MOVWF  FEA
022F4:  MOVF   FEF,W
022F6:  SUBLW  AA
022F8:  BTFSC  FD8.2
022FA:  BRA    2302
022FC:  MOVLB  0
022FE:  GOTO   2312
02302:  MOVLB  0
....................          return i+1;
02304:  MOVLW  01
02306:  MOVLB  1
02308:  ADDWF  x83,W
0230A:  MOVWF  01
0230C:  MOVLB  0
0230E:  GOTO   236E
02312:  MOVLB  1
02314:  INCF   x83,F
02316:  MOVLB  0
02318:  GOTO   22D2
....................    if (receive_signal[i] == SFD)
0231C:  MOVLB  1
0231E:  MOVF   x83,W
02320:  ADDWF  x80,W
02322:  MOVWF  FE9
02324:  MOVLW  00
02326:  ADDWFC x81,W
02328:  MOVWF  FEA
0232A:  MOVF   FEF,W
0232C:  SUBLW  AA
0232E:  BTFSC  FD8.2
02330:  BRA    2338
02332:  MOVLB  0
02334:  GOTO   2356
02338:  MOVLB  0
....................    {
....................       fprintf(PC, "signal end with SFD\r\n");
0233A:  MOVLW  E4
0233C:  MOVWF  FF6
0233E:  MOVLW  01
02340:  MOVWF  FF7
02342:  MOVLW  00
02344:  MOVWF  FF8
02346:  CALL   0A42
....................       return -1;
0234A:  MOVLW  FF
0234C:  MOVWF  01
0234E:  GOTO   236E
....................    }
02352:  GOTO   236E
....................    else
....................    {
....................       fprintf(PC, "don't find SFD\r\n");
02356:  MOVLW  FA
02358:  MOVWF  FF6
0235A:  MOVLW  01
0235C:  MOVWF  FF7
0235E:  MOVLW  00
02360:  MOVWF  FF8
02362:  CALL   0A42
....................       return -1;
02366:  MOVLW  FF
02368:  MOVWF  01
0236A:  GOTO   236E
....................    }
0236E:  GOTO   2684 (RETURN)
....................    
.................... }
.................... 
.................... static int8 get_content_size(unsigned int8 frame_id)
.................... {
....................    for (int i = 0; i < (sizeof(frame_ids) / sizeof(frame_ids[0])); i++)
02372:  MOVLB  1
02374:  CLRF   x81
02376:  MOVLB  0
02378:  MOVLB  1
0237A:  MOVF   x81,W
0237C:  SUBLW  02
0237E:  BTFSC  FD8.0
02380:  BRA    2388
02382:  MOVLB  0
02384:  GOTO   23E6
02388:  MOVLB  0
....................       if (frame_id == frame_ids[i].id)
0238A:  BCF    FD8.0
0238C:  MOVLB  1
0238E:  RLCF   x81,W
02390:  CLRF   x83
02392:  MOVWF  x82
02394:  MOVLW  0D
02396:  ADDWF  x82,W
02398:  MOVWF  FE9
0239A:  MOVLW  01
0239C:  ADDWFC x83,W
0239E:  MOVWF  FEA
023A0:  MOVF   FEF,W
023A2:  SUBWF  x80,W
023A4:  BTFSC  FD8.2
023A6:  BRA    23AE
023A8:  MOVLB  0
023AA:  GOTO   23DC
023AE:  MOVLB  0
....................          return frame_ids[i].length;
023B0:  BCF    FD8.0
023B2:  MOVLB  1
023B4:  RLCF   x81,W
023B6:  CLRF   x83
023B8:  MOVWF  x82
023BA:  MOVLW  01
023BC:  ADDWF  x82,W
023BE:  MOVWF  01
023C0:  MOVLW  00
023C2:  ADDWFC x83,W
023C4:  MOVWF  03
023C6:  MOVF   01,W
023C8:  ADDLW  0D
023CA:  MOVWF  FE9
023CC:  MOVLW  01
023CE:  ADDWFC 03,W
023D0:  MOVWF  FEA
023D2:  MOVF   FEF,W
023D4:  MOVWF  01
023D6:  MOVLB  0
023D8:  GOTO   242A
023DC:  MOVLB  1
023DE:  INCF   x81,F
023E0:  MOVLB  0
023E2:  GOTO   2378
....................          
....................    fprintf(PC, "\t-> Invalid Frame ID received: %X\r\n", frame_id);
023E6:  MOVLW  0C
023E8:  MOVWF  FF6
023EA:  MOVLW  02
023EC:  MOVWF  FF7
023EE:  MOVLW  00
023F0:  MOVWF  FF8
023F2:  MOVLW  1F
023F4:  MOVLB  2
023F6:  MOVWF  x0C
023F8:  MOVLB  0
023FA:  CALL   0A72
023FE:  MOVFF  180,185
02402:  MOVLW  37
02404:  MOVLB  1
02406:  MOVWF  x86
02408:  MOVLB  0
0240A:  CALL   13BA
0240E:  MOVLW  0D
02410:  MOVLB  2
02412:  MOVWF  x10
02414:  MOVLB  0
02416:  CALL   09F0
0241A:  MOVLW  0A
0241C:  MOVLB  2
0241E:  MOVWF  x10
02420:  MOVLB  0
02422:  CALL   09F0
....................    return -1;
02426:  MOVLW  FF
02428:  MOVWF  01
0242A:  GOTO   26D4 (RETURN)
.................... }
.................... 
.................... static int1 check_crc(unsigned int8 frame[], int8 receive_frame_size)
0242E:  MOVLW  01
02430:  MOVLB  1
02432:  SUBWF  x82,W
02434:  ADDWF  x80,W
02436:  MOVWF  FE9
02438:  MOVLW  00
0243A:  ADDWFC x81,W
0243C:  MOVWF  FEA
0243E:  MOVFF  FEF,183
02442:  MOVLW  01
02444:  SUBWF  x82,W
02446:  MOVWF  x85
02448:  MOVFF  181,243
0244C:  MOVFF  180,242
02450:  MOVFF  185,244
02454:  MOVLB  0
02456:  CALL   1ABA
0245A:  MOVFF  01,184
.................... {
....................    unsigned int8 received_crc = frame[receive_frame_size-1]; // '1' is for crc
....................    unsigned int8 collect_crc = calc_crc8(frame, receive_frame_size-1);
....................    if (received_crc == collect_crc)
0245E:  MOVLB  1
02460:  MOVF   x84,W
02462:  SUBWF  x83,W
02464:  BTFSC  FD8.2
02466:  BRA    246E
02468:  MOVLB  0
0246A:  GOTO   247C
0246E:  MOVLB  0
....................       return TRUE;
02470:  MOVLW  01
02472:  MOVWF  01
02474:  GOTO   2514
02478:  GOTO   2514
....................    else
....................    {
....................       fprintf(PC, "\t-> CRC error!\r\n");
0247C:  MOVLW  30
0247E:  MOVWF  FF6
02480:  MOVLW  02
02482:  MOVWF  FF7
02484:  MOVLW  00
02486:  MOVWF  FF8
02488:  CALL   0A42
....................       fprintf(PC, "\t\t-> received CRC: %X\r\n", received_crc);
0248C:  MOVLW  42
0248E:  MOVWF  FF6
02490:  MOVLW  02
02492:  MOVWF  FF7
02494:  MOVLW  00
02496:  MOVWF  FF8
02498:  MOVLW  13
0249A:  MOVLB  2
0249C:  MOVWF  x0C
0249E:  MOVLB  0
024A0:  CALL   0A72
024A4:  MOVFF  183,185
024A8:  MOVLW  37
024AA:  MOVLB  1
024AC:  MOVWF  x86
024AE:  MOVLB  0
024B0:  CALL   13BA
024B4:  MOVLW  0D
024B6:  MOVLB  2
024B8:  MOVWF  x10
024BA:  MOVLB  0
024BC:  CALL   09F0
024C0:  MOVLW  0A
024C2:  MOVLB  2
024C4:  MOVWF  x10
024C6:  MOVLB  0
024C8:  CALL   09F0
....................       fprintf(PC, "\t\t   collect CRC : %X\r\n", collect_crc);
024CC:  MOVLW  5A
024CE:  MOVWF  FF6
024D0:  MOVLW  02
024D2:  MOVWF  FF7
024D4:  MOVLW  00
024D6:  MOVWF  FF8
024D8:  MOVLW  13
024DA:  MOVLB  2
024DC:  MOVWF  x0C
024DE:  MOVLB  0
024E0:  CALL   0A72
024E4:  MOVFF  184,185
024E8:  MOVLW  37
024EA:  MOVLB  1
024EC:  MOVWF  x86
024EE:  MOVLB  0
024F0:  CALL   13BA
024F4:  MOVLW  0D
024F6:  MOVLB  2
024F8:  MOVWF  x10
024FA:  MOVLB  0
024FC:  CALL   09F0
02500:  MOVLW  0A
02502:  MOVLB  2
02504:  MOVWF  x10
02506:  MOVLB  0
02508:  CALL   09F0
....................       return FALSE;
0250C:  MOVLW  00
0250E:  MOVWF  01
02510:  GOTO   2514
....................    }
02514:  GOTO   2710 (RETURN)
.................... }
.................... 
.................... static int1 check_device_id(unsigned int8 device_id)
.................... {
....................    if (SELF_DEVICE_ID == device_id)
02518:  MOVLB  1
0251A:  MOVF   x81,W
0251C:  SUBLW  0C
0251E:  BTFSC  FD8.2
02520:  BRA    2528
02522:  MOVLB  0
02524:  GOTO   2536
02528:  MOVLB  0
....................       return TRUE;
0252A:  MOVLW  01
0252C:  MOVWF  01
0252E:  GOTO   25CE
02532:  GOTO   25CE
....................    else
....................    {
....................       fprintf(PC, "\t-> Invalid device ID received\r\n");
02536:  MOVLW  72
02538:  MOVWF  FF6
0253A:  MOVLW  02
0253C:  MOVWF  FF7
0253E:  MOVLW  00
02540:  MOVWF  FF8
02542:  CALL   0A42
....................       fprintf(PC, "\t\t-> received:     %X\r\n", device_id);
02546:  MOVLW  94
02548:  MOVWF  FF6
0254A:  MOVLW  02
0254C:  MOVWF  FF7
0254E:  MOVLW  00
02550:  MOVWF  FF8
02552:  MOVLW  13
02554:  MOVLB  2
02556:  MOVWF  x0C
02558:  MOVLB  0
0255A:  CALL   0A72
0255E:  MOVFF  181,185
02562:  MOVLW  37
02564:  MOVLB  1
02566:  MOVWF  x86
02568:  MOVLB  0
0256A:  CALL   13BA
0256E:  MOVLW  0D
02570:  MOVLB  2
02572:  MOVWF  x10
02574:  MOVLB  0
02576:  CALL   09F0
0257A:  MOVLW  0A
0257C:  MOVLB  2
0257E:  MOVWF  x10
02580:  MOVLB  0
02582:  CALL   09F0
....................       fprintf(PC, "\t\t   My device ID: %X\r\n", SELF_DEVICE_ID);
02586:  MOVLW  AC
02588:  MOVWF  FF6
0258A:  MOVLW  02
0258C:  MOVWF  FF7
0258E:  MOVLW  00
02590:  MOVWF  FF8
02592:  MOVLW  13
02594:  MOVLB  2
02596:  MOVWF  x0C
02598:  MOVLB  0
0259A:  CALL   0A72
0259E:  MOVLW  0C
025A0:  MOVLB  1
025A2:  MOVWF  x85
025A4:  MOVLW  37
025A6:  MOVWF  x86
025A8:  MOVLB  0
025AA:  CALL   13BA
025AE:  MOVLW  0D
025B0:  MOVLB  2
025B2:  MOVWF  x10
025B4:  MOVLB  0
025B6:  CALL   09F0
025BA:  MOVLW  0A
025BC:  MOVLB  2
025BE:  MOVWF  x10
025C0:  MOVLB  0
025C2:  CALL   09F0
....................       return FALSE;  
025C6:  MOVLW  00
025C8:  MOVWF  01
025CA:  GOTO   25CE
....................    }
025CE:  GOTO   2746 (RETURN)
.................... }
.................... 
.................... 
.................... // _______ Transmit _______
.................... 
.................... void transmit_command(TransmitFrameId frame_id, unsigned int8 content[], int8 size)
.................... {
....................    unsigned int8 data[16];
....................    data[0] = SFD;
*
028D0:  MOVLW  AA
028D2:  MOVLB  1
028D4:  MOVWF  x6B
....................    data[1] = (BOSS_PIC << 4) | frame_id;
028D6:  MOVF   x67,W
028D8:  IORLW  50
028DA:  MOVWF  x6C
....................    memcpy(&data[2], content, size);
028DC:  MOVLW  01
028DE:  MOVWF  FEA
028E0:  MOVLW  6D
028E2:  MOVWF  FE9
028E4:  MOVFF  169,FE2
028E8:  MOVFF  168,FE1
028EC:  MOVF   x6A,W
028EE:  MOVWF  01
028F0:  BTFSS  FD8.2
028F2:  BRA    28FA
028F4:  MOVLB  0
028F6:  GOTO   2906
028FA:  MOVLB  0
028FC:  MOVFF  FE6,FEE
02900:  DECFSZ 01,F
02902:  GOTO   28FC
....................    int8 payload_size = 2 + size; // '2' is for Device ID and Frame ID plus CRC
02906:  MOVLW  02
02908:  MOVLB  1
0290A:  ADDWF  x6A,W
0290C:  MOVWF  x7B
....................    data[payload_size] = calc_crc8(&data[1], payload_size-1); // '1' is for CRC
0290E:  CLRF   03
02910:  MOVF   x7B,W
02912:  ADDLW  6B
02914:  MOVWF  01
02916:  MOVLW  01
02918:  ADDWFC 03,F
0291A:  MOVF   01,W
0291C:  MOVWF  x7D
0291E:  MOVFF  03,17E
02922:  MOVLW  01
02924:  SUBWF  x7B,W
02926:  MOVWF  x7F
02928:  MOVLW  01
0292A:  MOVLB  2
0292C:  MOVWF  x43
0292E:  MOVLW  6C
02930:  MOVWF  x42
02932:  MOVFF  17F,244
02936:  MOVLB  0
02938:  CALL   1ABA
0293C:  MOVFF  17E,FEA
02940:  MOVFF  17D,FE9
02944:  MOVFF  01,FEF
....................    int8 data_size = payload_size + 1; // '1' is for CRC
02948:  MOVLW  01
0294A:  MOVLB  1
0294C:  ADDWF  x7B,W
0294E:  MOVWF  x7C
....................    
....................    transmit(data, data_size);
02950:  MOVLW  01
02952:  MOVWF  x7E
02954:  MOVLW  6B
02956:  MOVWF  x7D
02958:  MOVFF  17C,17F
0295C:  MOVLB  0
0295E:  GOTO   281A
02962:  GOTO   2978 (RETURN)
.................... }
.................... 
.................... static void transmit(unsigned int8 data[], int8 data_size)
.................... {
....................    for(int i = 0; i < data_size; i++)
*
0281A:  MOVLB  1
0281C:  CLRF   x80
0281E:  MOVLB  0
02820:  MOVLB  1
02822:  MOVF   x7F,W
02824:  SUBWF  x80,W
02826:  BTFSS  FD8.0
02828:  BRA    2830
0282A:  MOVLB  0
0282C:  GOTO   2856
02830:  MOVLB  0
....................       fputc(data[i], BOSS);
02832:  MOVLB  1
02834:  MOVF   x80,W
02836:  ADDWF  x7D,W
02838:  MOVWF  FE9
0283A:  MOVLW  00
0283C:  ADDWFC x7E,W
0283E:  MOVWF  FEA
02840:  MOVFF  FEF,182
02844:  MOVF   x82,W
02846:  MOVLB  0
02848:  GOTO   280A
0284C:  MOVLB  1
0284E:  INCF   x80,F
02850:  MOVLB  0
02852:  GOTO   2820
....................       
....................    fprintf(PC, "\t[BOSS] <<< ");
02856:  MOVLW  C4
02858:  MOVWF  FF6
0285A:  MOVLW  02
0285C:  MOVWF  FF7
0285E:  MOVLW  00
02860:  MOVWF  FF8
02862:  CALL   0A42
....................    for(int i = 0; i < data_size; i++)
02866:  MOVLB  1
02868:  CLRF   x81
0286A:  MOVLB  0
0286C:  MOVLB  1
0286E:  MOVF   x7F,W
02870:  SUBWF  x81,W
02872:  BTFSS  FD8.0
02874:  BRA    287C
02876:  MOVLB  0
02878:  GOTO   28B4
0287C:  MOVLB  0
....................       fprintf(PC, "%X ", data[i]);
0287E:  MOVLB  1
02880:  MOVF   x81,W
02882:  ADDWF  x7D,W
02884:  MOVWF  FE9
02886:  MOVLW  00
02888:  ADDWFC x7E,W
0288A:  MOVWF  FEA
0288C:  MOVFF  FEF,182
02890:  MOVFF  182,185
02894:  MOVLW  37
02896:  MOVWF  x86
02898:  MOVLB  0
0289A:  CALL   13BA
0289E:  MOVLW  20
028A0:  MOVLB  2
028A2:  MOVWF  x10
028A4:  MOVLB  0
028A6:  CALL   09F0
028AA:  MOVLB  1
028AC:  INCF   x81,F
028AE:  MOVLB  0
028B0:  GOTO   286C
....................    fprintf(PC, "\r\n");
028B4:  MOVLW  0D
028B6:  MOVLB  2
028B8:  MOVWF  x10
028BA:  MOVLB  0
028BC:  CALL   09F0
028C0:  MOVLW  0A
028C2:  MOVLB  2
028C4:  MOVWF  x10
028C6:  MOVLB  0
028C8:  CALL   09F0
028CC:  GOTO   2962 (RETURN)
.................... }
.................... 
.................... #include "../../lib/communication/communication_driver.c"
.................... Command make_command(unsigned int8 receive_signal[], int8 receive_signal_size)
.................... {
....................    Command command = make_receive_command(receive_signal, receive_signal_size);
....................    return command;
.................... }
.................... 
.................... void transmit_ack()
.................... {
....................    transmit_command(ACK, 0, 0);
*
02966:  MOVLW  0F
02968:  MOVLB  1
0296A:  MOVWF  x67
0296C:  CLRF   x69
0296E:  CLRF   x68
02970:  CLRF   x6A
02972:  MOVLB  0
02974:  GOTO   28D0
02978:  GOTO   38FE (RETURN)
.................... }
.................... 
.................... void transmit_status()
.................... {
....................    transmit_command(MIS_MCU_STATUS, &status, 4);
.................... }
.................... 
.................... 
.................... #include "../../lib/communication/mission_tools.c"
.................... int1 req_use_smf()
.................... {
....................    fprintf(PC, "Start SMF using reqest seaquence\r\n");
....................    status = SMF_USE_REQ;
....................    is_use_smf_req_in_mission = TRUE;
.................... 
....................    while (TRUE)
....................    {
....................       for (int16 i = 0; i < 1200; i++) // 10 min
....................       {
....................          if (boss_receive_buffer_size > 0)
....................          {
....................             Command command = make_receive_command(boss_receive_buffer, boss_receive_buffer_size);
....................             clear_receive_signal(boss_receive_buffer, &boss_receive_buffer_size);
....................             if (command.frame_id == STATUS_CHECK)
....................             {
....................                transmit_status();
....................                break;
....................             }
....................             else
....................             {
....................                fprintf(PC, "Error! Receiving command inconsistent with the design\r\n");
....................             }
....................          }
....................          delay_ms(500);
....................       }
.................... 
....................       for (int16 i = 0; i < 1200; i++) // 10 min
....................       {
....................          if (boss_receive_buffer_size > 0)
....................          {
....................             Command command = make_receive_command(boss_receive_buffer, boss_receive_buffer_size);
....................             clear_receive_signal(boss_receive_buffer, &boss_receive_buffer_size);
....................             if (command.frame_id == IS_SMF_AVAILABLE)
....................             {
....................                if (command.content[0] == ALLOW)
....................                {
....................                   fprintf(PC, "SMF use request allowed\r\n");
....................                   transmit_ack();
....................                   goto NEXT;
....................                }
....................                else
....................                {
....................                   fprintf(PC, "SMF use request denyed\r\n");
....................                   fprintf(PC, "Retry request to BOSS PIC\r\n");
....................                   transmit_ack();
....................                   break;
....................                }
....................             }
....................             else
....................             {
....................                fprintf(PC, "Error! Receiving command inconsistent with the design\r\n");
....................             }
....................          }
....................          delay_ms(500);
....................       }
....................    }
.................... 
.................... NEXT:
....................    is_use_smf_req_in_mission = FALSE;
....................    status = COPYING;
....................    return TRUE;
....................    fprintf(PC, "End SMF using reqest seaquence\r\n");
.................... }
.................... 
.................... 
.................... void finished_use_smf()
.................... {
....................    status = EXECUTING_MISSION;
.................... }
.................... 
.................... void check_and_respond_to_boss()
.................... {
....................    if (kbhit())
....................    {
....................       fgetc(BOSS);
....................       transmit_status();
....................    }
.................... }
.................... 
.................... 
.................... 
.................... // コア機能実装ファイル
.................... #include "../core/measurement/son_tmp_strain.c"
.................... #include "son_tmp_strain.h"
.................... #ifndef son_tmp_strain_H
.................... #define son_tmp_strain_H
.................... 
.................... #include <stdint.h>
.................... #include <stdbool.h>
.................... #include "../../system/son_tmp_config.h"
.................... 
.................... // ============================================================================
.................... // 外部公開関数プロトタイプ
.................... // ============================================================================
.................... 
.................... // ペリフェラルの初期化 (ピンの出力設定など)
.................... void io_init(void);
.................... 
.................... // アナログスイッチの切り替え (0〜3チャンネル)
.................... void switch_channel(uint8_t ch);
.................... 
.................... // LTC2452から16bitのADC値を読み取る
.................... uint16_t read_adc_ltc2452(void);
.................... 
.................... // 計測シーケンスの実行とFlashへの保存 (IVデータ ＋ 温度データを連続実行)
.................... // mode: 動作モード
.................... // channel: 測定チャンネル (MAX4734EUB+ の選択)
.................... // samplingRate: サンプリングレート設定値
.................... void execute_measurement(uint8_t mode, uint8_t channel, uint8_t samplingRate);
.................... 
.................... #endif // son_tmp_strain_H
.................... 
.................... #include "son_tmp_temp.h" // 温度計測モジュールをインクルード
.................... #ifndef son_tmp_TEMP_H
.................... #define son_tmp_TEMP_H
.................... 
.................... #include <stdint.h>
.................... #include <stdbool.h>
.................... #include "../../system/son_tmp_config.h"
.................... 
.................... // ============================================================================
.................... // 温度データ用パケット構造体 (64Byte)
.................... // ============================================================================
.................... typedef struct
.................... {
....................     uint8_t packetNum;       // パケット番号 (1 Byte)
....................     uint8_t tempData[62];    // 温度データ本体 (62 Byte = 12bit x 41データ)
....................     uint8_t crc8;            // CRC-8 (1 Byte)
.................... } TempPacket;
.................... 
.................... // メモリバッファ用共用体
.................... typedef union
.................... {
....................     uint8_t raw[PACKET_SIZE];
....................     TempPacket temp;
.................... } TempPacketBuffer;
.................... 
.................... // ============================================================================
.................... // 外部公開関数プロトタイプ
.................... // ============================================================================
.................... 
.................... // 内蔵ADCの初期化
.................... void temp_io_init(void);
.................... 
.................... // 内蔵ADCから温度センサーの値を読み取る (12bit)
.................... uint16_t read_adc_internal(void);
.................... 
.................... // 温度計測シーケンスの実行とFlashへの保存
.................... // startPacketNum: 開始パケット番号 (19)
.................... // packetCount: 実行するパケット数 (14)
.................... void execute_temp_measurement(uint8_t startPacketNum, uint8_t packetCount);
.................... 
.................... #endif // son_tmp_TEMP_H
.................... 
.................... 
.................... // 必要な外部モジュールのインクルード
.................... #include "../../hardware/mcu/timer.h"
.................... #ifndef TIMER_H
.................... #define TIMER_H
.................... 
.................... #include <stdint.h>
.................... 
.................... // __________ values _________
.................... 
.................... // パケットヘッダーの timestamp で使用するための秒カウンタ
.................... extern volatile uint32_t sec;
.................... 
.................... 
.................... // __________ functions _________
.................... uint32_t get_current_sec();
.................... void set_current_sec(uint32_t new_sec);
.................... void setup_timer();
.................... 
.................... #INT_TIMER1
.................... void TIMER1_isr();
.................... 
.................... #endif
.................... 
.................... #include "../storage/son_tmp_flash.h"
.................... #ifndef son_tmp_FLASH_H
.................... #define son_tmp_FLASH_H
.................... 
.................... #include <stdint.h>
.................... #include <string.h>
.................... #include "../../system/son_tmp_config.h"
.................... 
.................... // 共通ライブラリのヘッダ (MissionIDなどの定数用)
.................... // #include "../../../lib/communication/typedef_content.h"
.................... // #include "../../../lib/communication/value_status.h"
.................... 
.................... // ============================================================================
.................... // メモリマップ定義 (MT25QL128ABA: 16MB)
.................... // ============================================================================
.................... #define MISF_START 0x00000000
.................... #define MISF_END   0x00FFFFFF
.................... 
.................... #define SECTOR_64K_BYTE  0x10000
.................... 
.................... #define MISF_CIGS_DATA_TABLE_SIZE 64
.................... 
.................... #define MISF_CIGS_DATA_TABLE_START 0x00000000
.................... #define MISF_CIGS_DATA_TABLE_END   0x00000FFF
.................... #define MISF_CIGS_PICLOG_START     0x00010000
.................... #define MISF_CIGS_PICLOG_END       0x00140FFF
.................... #define MISF_CIGS_ENVIRO_START     0x00281000
.................... #define MISF_CIGS_ENVIRO_END       0x00320FFF
.................... #define MISF_CIGS_IV_HEADER_START  0x00721000
.................... #define MISF_CIGS_IV_HEADER_END    0x007C0FFF
.................... #define MISF_CIGS_IV_DATA_START    0x007C1000
.................... #define MISF_CIGS_IV_DATA_END      0x00D00000
.................... 
.................... // ============================================================================
.................... // データ構造体定義
.................... // ============================================================================
.................... 
.................... // フラッシュカウンタ構造体 (11 Bytes)
.................... typedef struct
.................... {
....................     uint8_t   mission_id;
....................     uint32_t  used_counter;
....................     uint32_t  uncopied_counter;
....................     uint8_t   reserve_counter1;
....................     uint8_t   reserve_counter2;
.................... } Flash_t;
.................... 
.................... // テーブル保存用の64Byteパケット構造体
.................... typedef union
.................... {
....................     struct
....................     {
....................         union
....................         {
....................             struct
....................             {
....................                 Flash_t piclog;
....................                 Flash_t environment;
....................                 Flash_t iv_header;
....................                 Flash_t iv_data;
....................             } logdata;
....................             uint8_t reserve[63];
....................         } payload;
....................         uint8_t crc; // 1バイトのCRC
....................     } packet;
....................     uint8_t bytes[64];
.................... } FlashData_t;
.................... 
.................... typedef struct
.................... {
....................     uint32_t start_address;
....................     uint32_t end_address;
.................... } MisfStatusStruct;
.................... 
.................... typedef struct
.................... {
....................     uint32_t start_address;
....................     uint32_t size;
.................... } MisfWriteStruct;
.................... 
.................... // ============================================================================
.................... // グローバル変数 (宣言のみ、実体は.cファイルに記述)
.................... // ============================================================================
.................... extern Flash_t piclog_data;
.................... extern Flash_t environment_data;
.................... extern Flash_t iv_header;
.................... extern Flash_t iv_data;
.................... 
.................... // ============================================================================
.................... // 外部公開関数プロトタイプ
.................... // ============================================================================
.................... void misf_init(void);
.................... FlashData_t make_flash_data_table(void);
.................... void write_misf_address_area(void);
.................... MisfStatusStruct get_misf_status_struct(uint8_t mission_id);
.................... MisfWriteStruct get_misf_write_struct(uint8_t mission_id);
.................... void print_flash_status(void);
.................... 
.................... #endif // son_tmp_FLASH_H
.................... 
.................... #include "../../../lib/tool/calc_tools.h"
.................... #ifndef CALC_TOOLS_H
.................... #define CALC_TOOLS_H
....................  
.................... unsigned int8 calc_crc8(unsigned int8 *frame, unsigned int8 payload_size);
.................... int1 is_crc_valid(unsigned int8 *frame, int8 payload_size);
.................... void int32_to_be_array(int32 value, int8 *buf, int8 index);
.................... int32 lsb_array_to_int32(int8 *buf, int8 index);
.................... unsigned int32 lsb_to_msb(unsigned int32 value);
.................... unsigned int32 msb_to_lsb(unsigned int32 value);
.................... 
.................... 
.................... #endif // CALC_TOOLS_H  
.................... 
.................... #include "../../../lib/device/mt25q.h"
.................... #ifndef MT25Q_H
.................... #define MT25Q_H
.................... 
.................... // =========
.................... //#define MT25Q_DEBUG
.................... // =========
.................... 
.................... 
.................... #define FLASH_STREAM0 MIS_FM_STREAM     // <- Align the names to `config.h` Stream name
.................... #define FLASH_STREAM1 SMF_STREAM
.................... #define FLASH_STREAM2 SMF_STREAM // dont use
.................... #define FLASH_STREAM3 SMF_STREAM // dont use
.................... 
.................... typedef enum spi_stream{
....................     SPI_0,
....................     SPI_1,
....................     SPI_2,
....................     SPI_3,
.................... }SpiStreamId;
.................... 
.................... #define MT25QL128ABA 0x00     //Mission Flash
.................... #define MT25QL01GBBB 0x01     //SMF,CF
.................... typedef struct select_stream_to_flash{
....................     SpiStreamId spi_stream_id;
....................     unsigned int8 flash_model;
....................     int16 cs_pin;
.................... }Flash;
.................... 
.................... 
.................... Flash mis_fm = {SPI_0, MT25QL128ABA, MIS_FM_CS};
.................... Flash smf = {SPI_1, MT25QL01GBBB, SMF_CS};
.................... 
.................... 
.................... 
.................... // ===================== Function List =====================
.................... // Public Functions
.................... 
.................... int1 is_connect(Flash flash_stream);
.................... 
.................... void write_data_bytes(Flash flash_stream, unsigned int32 write_start_address, int8 *write_data, unsigned int16 write_amount);      
.................... 
.................... void read_data_bytes(Flash flash_stream, unsigned int32 read_start_address, int8 *read_data, unsigned int32 read_amount);  
.................... 
.................... void sector_erase(Flash flash_stream, unsigned int32 sector_address);
.................... 
.................... void subsector_32kByte_erase(Flash flash_stream, unsigned int32 subsector_address);  
....................                                
.................... void subsector_4kByte_erase(Flash flash_stream, unsigned int32 subsector_address);      
.................... 
.................... //Private Functions
....................  
.................... void flash_setting(Flash flash_stream);
....................  
.................... int8 status_register(Flash flash_stream);
....................  
.................... int8 read_id(Flash flash_stream);
....................  
.................... int8 read_data_byte(Flash flash_stream, unsigned int32 read_address);                                               
....................  
.................... void write_data_byte(Flash flash_stream, unsigned int32 write_address,int8 write_data);                             
....................         //
.................... 
.................... 
.................... // ===================== Flash Commands =====================
.................... #define CMD_READ_ID                     0x9F
.................... #define CMD_READ_STATUS_REGISTER        0x05
.................... #define CMD_READ                        0x03//for MT25QL128ABA
.................... #define CMD_4BYTE_READ                  0x13//for MT25QL01GBBB
.................... #define CMD_WRITE_ENABLE                0x06
.................... #define CMD_PAGE_PROGRAM                0x02//for MT25QL128ABA
.................... #define CMD_4BYTE_PAGE_PROGRAM          0x12//for MT25QL01GBBB
.................... #define CMD_SUBSECTOR_4KB_ERASE         0x20//for MT25QL128ABA
.................... #define CMD_4BYTE_SUBSECTOR_4KB_ERASE   0x21//for MT25QL01GBBB
.................... #define CMD_SUBSECTOR_32KB_ERASE        0x52//for MT25QL128ABA
.................... #define CMD_4BYTE_SUBSECTOR_32KB_ERASE  0x5C//for MT25QL01GBBB
.................... #define CMD_SECTOR_ERASE                0xD8//for MT25QL128ABA
.................... #define CMD_4BYTE_SECTOR_ERASE          0xDC//for MT25QL01GBBB
.................... 
.................... // ====================== Value List =====================
.................... #define MANUFACTURER_ID_MICRON 0x20 // Manufacturer ID for Micron flash
.................... #define READ_ID_DATASIZE 20 // 20 bytes for read ID data
.................... 
.................... 
.................... // ====================== Data Structures =====================
.................... typedef union
.................... {
....................     unsigned int8 bytes[READ_ID_DATASIZE]; // 20 bytes for read ID
....................     struct {
....................         unsigned int8 manufacturer_id; // 1 byte
....................         unsigned int8 memory_type;     // 1 byte
....................         unsigned int8 capacity;        // 1 byte
....................         unsigned int8 reserved;       // 1 byte
....................     } fields;
.................... }READ_ID_DATA;
.................... 
.................... 
.................... #endif
.................... 
.................... 
.................... 
.................... 
.................... // ============================================================================
.................... // ハードウェア・ペリフェラル制御
.................... // ============================================================================
.................... 
.................... void io_init()
.................... {
....................     fprintf(PC, "IO Initialize\r\n");
*
00AEE:  MOVLW  D8
00AF0:  MOVWF  FF6
00AF2:  MOVLW  03
00AF4:  MOVWF  FF7
00AF6:  MOVLW  00
00AF8:  MOVWF  FF8
00AFA:  CALL   0A42
.................... 
....................     // SPI Chip Select の初期化 (Highで非選択)
....................     output_high(PIN_CS_ADC);
00AFE:  BCF    F93.3
00B00:  BSF    F8A.3
....................     output_high(MIS_FM_CS);
00B02:  BCF    F93.1
00B04:  BSF    F8A.1
....................     output_high(SMF_CS);
00B06:  BCF    F95.4
00B08:  BSF    F8C.4
.................... 
....................     // 電源・制御ピンの初期化 (LowでOFF)
....................     output_low(PIN_LDO_EN);
00B0A:  BCF    F96.1
00B0C:  BCF    F8D.1
....................     output_low(PIN_VREF_EN);
00B0E:  BCF    F96.0
00B10:  BCF    F8D.0
.................... 
....................     // アナログスイッチの初期化
....................     output_low(PIN_SW_DIO0);
00B12:  BCF    F94.2
00B14:  BCF    F8B.2
....................     output_low(PIN_SW_DIO1);
00B16:  BCF    F94.1
00B18:  BCF    F8B.1
.................... 
....................     // テレメトリLEDの初期化
....................     output_low(PIN_LED1);
00B1A:  BCF    F92.5
00B1C:  BCF    F89.5
....................     output_low(PIN_LED2);
00B1E:  BCF    F92.1
00B20:  BCF    F89.1
.................... 
....................     // 内蔵ADC(温度センサ用)の初期化もここで呼び出す
....................     temp_io_init();
00B22:  GOTO   0AA8
.................... 
....................     delay_ms(1);
00B26:  MOVLW  01
00B28:  MOVLB  2
00B2A:  MOVWF  x24
00B2C:  MOVLB  0
00B2E:  CALL   09C2
....................     fprintf(PC, "\tComplete\r\n");
00B32:  MOVLW  E8
00B34:  MOVWF  FF6
00B36:  MOVLW  03
00B38:  MOVWF  FF7
00B3A:  MOVLW  00
00B3C:  MOVWF  FF8
00B3E:  CALL   0A42
00B42:  GOTO   3CBA (RETURN)
.................... }
.................... 
.................... void switch_channel(uint8_t ch)
.................... {
....................     // MAX4734EUB+ は 2bit (DIO1, DIO0) で 4ch を切り替える
....................     if (ch & 0x01)
*
02A26:  MOVLB  1
02A28:  BTFSC  xBC.0
02A2A:  BRA    2A32
02A2C:  MOVLB  0
02A2E:  GOTO   2A3C
02A32:  MOVLB  0
....................     {
....................         output_high(PIN_SW_DIO0);
02A34:  BCF    F94.2
02A36:  BSF    F8B.2
....................     }
02A38:  GOTO   2A40
....................     else
....................     {
....................         output_low(PIN_SW_DIO0);
02A3C:  BCF    F94.2
02A3E:  BCF    F8B.2
....................     }
.................... 
....................     if (ch & 0x02)
02A40:  MOVLB  1
02A42:  BTFSC  xBC.1
02A44:  BRA    2A4C
02A46:  MOVLB  0
02A48:  GOTO   2A56
02A4C:  MOVLB  0
....................     {
....................         output_high(PIN_SW_DIO1);
02A4E:  BCF    F94.1
02A50:  BSF    F8B.1
....................     }
02A52:  GOTO   2A5A
....................     else
....................     {
....................         output_low(PIN_SW_DIO1);
02A56:  BCF    F94.1
02A58:  BCF    F8B.1
....................     }
.................... 
....................     // スイッチ切り替え後の安定待ち
....................     delay_us(10);
02A5A:  MOVLW  0D
02A5C:  MOVWF  00
02A5E:  DECFSZ 00,F
02A60:  BRA    2A5E
02A62:  GOTO   2E14 (RETURN)
.................... }
.................... 
.................... uint16_t read_adc_ltc2452()
02A66:  MOVLB  1
02A68:  CLRF   xBD
02A6A:  CLRF   xBC
.................... {
....................     uint16_t adc_val = 0;
.................... 
....................     output_low(PIN_CS_ADC);
02A6C:  BCF    F93.3
02A6E:  BCF    F8A.3
.................... 
....................     // LTC2452は16bitデータを出力 (MSBファースト)
....................     adc_val = spi_xfer(MIS_FM_STREAM, 0x00);                  // 上位8bit
02A70:  MOVLB  2
02A72:  CLRF   x46
02A74:  MOVLW  08
02A76:  MOVWF  x47
02A78:  MOVLW  01
02A7A:  MOVWF  x48
02A7C:  MOVLB  0
02A7E:  CALL   0C00
02A82:  MOVLB  1
02A84:  CLRF   xBD
02A86:  MOVFF  01,1BC
....................     adc_val = (adc_val << 8) | spi_xfer(MIS_FM_STREAM, 0x00); // 下位8bit
02A8A:  MOVFF  1BC,1BF
02A8E:  CLRF   xBE
02A90:  MOVLB  2
02A92:  CLRF   x46
02A94:  MOVLW  08
02A96:  MOVWF  x47
02A98:  MOVLW  01
02A9A:  MOVWF  x48
02A9C:  MOVLB  0
02A9E:  CALL   0C00
02AA2:  MOVLB  1
02AA4:  MOVF   xBE,W
02AA6:  IORWF  01,W
02AA8:  MOVWF  xBC
02AAA:  MOVF   xBF,W
02AAC:  MOVWF  xBD
.................... 
....................     output_high(PIN_CS_ADC);
02AAE:  BCF    F93.3
02AB0:  BSF    F8A.3
.................... 
....................     return adc_val;
02AB2:  MOVF   xBC,W
02AB4:  MOVWF  01
02AB6:  MOVF   xBD,W
02AB8:  MOVWF  02
02ABA:  MOVLB  0
02ABC:  GOTO   2E86 (RETURN)
.................... }
.................... 
.................... // ============================================================================
.................... // 計測シーケンスとFlash保存処理
.................... // ============================================================================
.................... 
.................... void execute_measurement(uint8_t mode, uint8_t channel, uint8_t samplingRate)
*
02D82:  MOVLW  01
02D84:  MOVLB  1
02D86:  MOVWF  xAF
02D88:  CLRF   xB0
02D8A:  BSF    xB1.0
.................... {
....................     PacketBuffer packet;
....................     uint8_t currentPacketNum = 1; // 要件に合わせてパケット1からスタート
....................     uint8_t dataIdxInPkt = 0;
....................     bool isFirstPacket = true;
.................... 
....................     fprintf(PC, "Start Measurement (Mode:%u, Ch:%u)\r\n", mode, channel);
02D8C:  MOVLW  F4
02D8E:  MOVWF  FF6
02D90:  MOVLW  03
02D92:  MOVWF  FF7
02D94:  MOVLW  00
02D96:  MOVWF  FF8
02D98:  MOVLW  18
02D9A:  MOVLB  2
02D9C:  MOVWF  x0C
02D9E:  MOVLB  0
02DA0:  CALL   0A72
02DA4:  MOVFF  16C,20C
02DA8:  MOVLW  1B
02DAA:  MOVLB  2
02DAC:  MOVWF  x0D
02DAE:  MOVLB  0
02DB0:  CALL   297C
02DB4:  MOVLW  0E
02DB6:  MOVWF  FF6
02DB8:  MOVLW  04
02DBA:  MOVWF  FF7
02DBC:  MOVLW  00
02DBE:  MOVWF  FF8
02DC0:  MOVLW  05
02DC2:  MOVLB  2
02DC4:  MOVWF  x0C
02DC6:  MOVLB  0
02DC8:  CALL   0A72
02DCC:  MOVFF  16D,20C
02DD0:  MOVLW  1B
02DD2:  MOVLB  2
02DD4:  MOVWF  x0D
02DD6:  MOVLB  0
02DD8:  CALL   297C
02DDC:  MOVLW  15
02DDE:  MOVWF  FF6
02DE0:  MOVLW  04
02DE2:  MOVWF  FF7
02DE4:  MOVLW  00
02DE6:  MOVWF  FF8
02DE8:  MOVLW  03
02DEA:  MOVLB  2
02DEC:  MOVWF  x0C
02DEE:  MOVLB  0
02DF0:  CALL   0A72
.................... 
....................     // 1. 周辺回路の電源投入と安定待ち
....................     output_high(PIN_LDO_EN);
02DF4:  BCF    F96.1
02DF6:  BSF    F8D.1
....................     output_high(PIN_VREF_EN);
02DF8:  BCF    F96.0
02DFA:  BSF    F8D.0
....................     output_high(PIN_LED1); // 計測中インジケータON
02DFC:  BCF    F92.5
02DFE:  BSF    F89.5
....................     delay_ms(10);
02E00:  MOVLW  0A
02E02:  MOVLB  2
02E04:  MOVWF  x24
02E06:  MOVLB  0
02E08:  CALL   09C2
.................... 
....................     // 2. アナログスイッチの切り替え
....................     switch_channel(channel);
02E0C:  MOVFF  16D,1BC
02E10:  GOTO   2A26
.................... 
....................     // 3. IVデータ計測ループ (パケット1 〜 18まで固定)
....................     memset(packet.raw, 0, PACKET_SIZE);
02E14:  MOVLW  01
02E16:  MOVWF  FEA
02E18:  MOVLW  6F
02E1A:  MOVWF  FE9
02E1C:  CLRF   00
02E1E:  CLRF   02
02E20:  MOVLW  40
02E22:  MOVWF  01
02E24:  CALL   0FBC
.................... 
....................     // 最初のパケット(FirstPacket)のヘッダー情報を設定
....................     packet.first.header.timestamp = get_current_sec();
02E28:  CALL   13A8
02E2C:  MOVFF  03,172
02E30:  MOVFF  02,171
02E34:  MOVFF  01,170
02E38:  MOVFF  00,16F
....................     packet.first.header.mode = mode;
02E3C:  MOVLB  1
02E3E:  MOVF   x6C,W
02E40:  ANDLW  07
02E42:  MOVWF  00
02E44:  MOVLW  F8
02E46:  ANDWF  x73,W
02E48:  IORWF  00,W
02E4A:  MOVWF  x73
....................     packet.first.header.channel = channel;
02E4C:  BCF    x73.3
02E4E:  BTFSC  x6D.0
02E50:  BSF    x73.3
....................     packet.first.header.samplingRate = samplingRate;
02E52:  SWAPF  x6E,W
02E54:  ANDLW  F0
02E56:  MOVWF  00
02E58:  MOVLW  0F
02E5A:  ANDWF  x73,W
02E5C:  IORWF  00,W
02E5E:  MOVWF  x73
....................     packet.first.header.dataCount = 554; // IVデータの総数(固定): 27 + (17 * 31)
02E60:  MOVLW  02
02E62:  MOVWF  x75
02E64:  MOVLW  2A
02E66:  MOVWF  x74
....................     packet.first.header.zeroFill = 0;
02E68:  CLRF   x76
.................... 
....................     packet.first.packetNum = currentPacketNum;
02E6A:  MOVFF  1AF,177
02E6E:  MOVLB  0
.................... 
....................     while (currentPacketNum <= 18)
02E70:  MOVLB  1
02E72:  MOVF   xAF,W
02E74:  SUBLW  12
02E76:  BTFSC  FD8.0
02E78:  BRA    2E80
02E7A:  MOVLB  0
02E7C:  GOTO   3092
02E80:  MOVLB  0
....................     {
....................         uint16_t adc_val = read_adc_ltc2452();
02E82:  GOTO   2A66
02E86:  MOVFF  02,1B3
02E8A:  MOVFF  01,1B2
.................... 
....................         // --- 1パケット目の処理 (データ27個) ---
....................         if (isFirstPacket)
02E8E:  MOVLB  1
02E90:  BTFSC  xB1.0
02E92:  BRA    2E9A
02E94:  MOVLB  0
02E96:  GOTO   2F92
02E9A:  MOVLB  0
....................         {
....................             packet.first.adcData[dataIdxInPkt++] = adc_val;
02E9C:  MOVLB  1
02E9E:  MOVF   xB0,W
02EA0:  INCF   xB0,F
02EA2:  MOVWF  00
02EA4:  BCF    FD8.0
02EA6:  RLCF   00,F
02EA8:  MOVF   00,W
02EAA:  CLRF   03
02EAC:  ADDLW  78
02EAE:  MOVWF  FE9
02EB0:  MOVLW  01
02EB2:  ADDWFC 03,W
02EB4:  MOVWF  FEA
02EB6:  MOVFF  1B3,FEC
02EBA:  MOVF   FED,F
02EBC:  MOVFF  1B2,FEF
.................... 
....................             // パケットが満杯(27個)になった場合
....................             if (dataIdxInPkt == 27)
02EC0:  MOVF   xB0,W
02EC2:  SUBLW  1B
02EC4:  BTFSC  FD8.2
02EC6:  BRA    2ECE
02EC8:  MOVLB  0
02ECA:  GOTO   2F8E
02ECE:  MOVLB  0
....................             {
....................                 packet.first.crc8 = calc_crc8(packet.raw, PACKET_SIZE - 1);
02ED0:  MOVLW  01
02ED2:  MOVLB  2
02ED4:  MOVWF  x43
02ED6:  MOVLW  6F
02ED8:  MOVWF  x42
02EDA:  MOVLW  3F
02EDC:  MOVWF  x44
02EDE:  MOVLB  0
02EE0:  CALL   1ABA
02EE4:  MOVFF  01,1AE
.................... 
....................                 // Flashへ書き込み
....................                 uint32_t write_address = MISF_CIGS_IV_DATA_START + iv_data.used_counter;
02EE8:  MOVLB  1
02EEA:  MOVF   x37,W
02EEC:  MOVWF  xB4
02EEE:  MOVLW  10
02EF0:  ADDWF  x38,W
02EF2:  MOVWF  xB5
02EF4:  MOVLW  7C
02EF6:  ADDWFC x39,W
02EF8:  MOVWF  xB6
02EFA:  MOVLW  00
02EFC:  ADDWFC x3A,W
02EFE:  MOVWF  xB7
....................                 write_data_bytes(mis_fm, write_address, packet.raw, PACKET_SIZE);
02F00:  MOVFF  108,20F
02F04:  MOVFF  107,20E
02F08:  MOVFF  106,20D
02F0C:  MOVFF  105,20C
02F10:  MOVFF  1B7,213
02F14:  MOVFF  1B6,212
02F18:  MOVFF  1B5,211
02F1C:  MOVFF  1B4,210
02F20:  MOVLW  01
02F22:  MOVLB  2
02F24:  MOVWF  x15
02F26:  MOVLW  6F
02F28:  MOVWF  x14
02F2A:  CLRF   x17
02F2C:  MOVLW  40
02F2E:  MOVWF  x16
02F30:  MOVLB  0
02F32:  CALL   1736
.................... 
....................                 iv_data.used_counter += PACKET_SIZE;
02F36:  MOVLW  40
02F38:  MOVLB  1
02F3A:  ADDWF  x37,F
02F3C:  MOVLW  00
02F3E:  ADDWFC x38,F
02F40:  MOVLW  00
02F42:  ADDWFC x39,F
02F44:  MOVLW  00
02F46:  ADDWFC x3A,F
....................                 iv_data.uncopied_counter += PACKET_SIZE;
02F48:  MOVLW  40
02F4A:  ADDWF  x3B,F
02F4C:  MOVLW  00
02F4E:  ADDWFC x3C,F
02F50:  MOVLW  00
02F52:  ADDWFC x3D,F
02F54:  MOVLW  00
02F56:  ADDWFC x3E,F
.................... 
....................                 isFirstPacket = false;
02F58:  BCF    xB1.0
....................                 currentPacketNum++;
02F5A:  INCF   xAF,F
.................... 
....................                 memset(packet.raw, 0, PACKET_SIZE);
02F5C:  MOVLW  01
02F5E:  MOVWF  FEA
02F60:  MOVLW  6F
02F62:  MOVWF  FE9
02F64:  CLRF   00
02F66:  CLRF   02
02F68:  MOVLW  40
02F6A:  MOVWF  01
02F6C:  MOVLB  0
02F6E:  CALL   0FBC
....................                 if (currentPacketNum <= 18)
02F72:  MOVLB  1
02F74:  MOVF   xAF,W
02F76:  SUBLW  12
02F78:  BTFSC  FD8.0
02F7A:  BRA    2F82
02F7C:  MOVLB  0
02F7E:  GOTO   2F88
02F82:  MOVLB  0
....................                 {
....................                     packet.sub.packetNum = currentPacketNum;
02F84:  MOVFF  1AF,16F
....................                 }
....................                 dataIdxInPkt = 0;
02F88:  MOVLB  1
02F8A:  CLRF   xB0
02F8C:  MOVLB  0
....................             }
....................         }
02F8E:  GOTO   3082
....................         // --- 2〜18パケット目の処理 (データ31個) ---
....................         else
....................         {
....................             packet.sub.adcData[dataIdxInPkt++] = adc_val;
02F92:  MOVLB  1
02F94:  MOVF   xB0,W
02F96:  INCF   xB0,F
02F98:  MOVWF  00
02F9A:  BCF    FD8.0
02F9C:  RLCF   00,F
02F9E:  MOVF   00,W
02FA0:  CLRF   03
02FA2:  ADDLW  70
02FA4:  MOVWF  FE9
02FA6:  MOVLW  01
02FA8:  ADDWFC 03,W
02FAA:  MOVWF  FEA
02FAC:  MOVFF  1B3,FEC
02FB0:  MOVF   FED,F
02FB2:  MOVFF  1B2,FEF
.................... 
....................             // パケットが満杯(31個)になった場合
....................             if (dataIdxInPkt == 31)
02FB6:  MOVF   xB0,W
02FB8:  SUBLW  1F
02FBA:  BTFSC  FD8.2
02FBC:  BRA    2FC4
02FBE:  MOVLB  0
02FC0:  GOTO   3082
02FC4:  MOVLB  0
....................             {
....................                 packet.sub.crc8 = calc_crc8(packet.raw, PACKET_SIZE - 1);
02FC6:  MOVLW  01
02FC8:  MOVLB  2
02FCA:  MOVWF  x43
02FCC:  MOVLW  6F
02FCE:  MOVWF  x42
02FD0:  MOVLW  3F
02FD2:  MOVWF  x44
02FD4:  MOVLB  0
02FD6:  CALL   1ABA
02FDA:  MOVFF  01,1AE
.................... 
....................                 // Flashへ書き込み
....................                 uint32_t write_address = MISF_CIGS_IV_DATA_START + iv_data.used_counter;
02FDE:  MOVLB  1
02FE0:  MOVF   x37,W
02FE2:  MOVWF  xB8
02FE4:  MOVLW  10
02FE6:  ADDWF  x38,W
02FE8:  MOVWF  xB9
02FEA:  MOVLW  7C
02FEC:  ADDWFC x39,W
02FEE:  MOVWF  xBA
02FF0:  MOVLW  00
02FF2:  ADDWFC x3A,W
02FF4:  MOVWF  xBB
....................                 write_data_bytes(mis_fm, write_address, packet.raw, PACKET_SIZE);
02FF6:  MOVFF  108,20F
02FFA:  MOVFF  107,20E
02FFE:  MOVFF  106,20D
03002:  MOVFF  105,20C
03006:  MOVFF  1BB,213
0300A:  MOVFF  1BA,212
0300E:  MOVFF  1B9,211
03012:  MOVFF  1B8,210
03016:  MOVLW  01
03018:  MOVLB  2
0301A:  MOVWF  x15
0301C:  MOVLW  6F
0301E:  MOVWF  x14
03020:  CLRF   x17
03022:  MOVLW  40
03024:  MOVWF  x16
03026:  MOVLB  0
03028:  CALL   1736
.................... 
....................                 iv_data.used_counter += PACKET_SIZE;
0302C:  MOVLW  40
0302E:  MOVLB  1
03030:  ADDWF  x37,F
03032:  MOVLW  00
03034:  ADDWFC x38,F
03036:  MOVLW  00
03038:  ADDWFC x39,F
0303A:  MOVLW  00
0303C:  ADDWFC x3A,F
....................                 iv_data.uncopied_counter += PACKET_SIZE;
0303E:  MOVLW  40
03040:  ADDWF  x3B,F
03042:  MOVLW  00
03044:  ADDWFC x3C,F
03046:  MOVLW  00
03048:  ADDWFC x3D,F
0304A:  MOVLW  00
0304C:  ADDWFC x3E,F
.................... 
....................                 currentPacketNum++;
0304E:  INCF   xAF,F
.................... 
....................                 memset(packet.raw, 0, PACKET_SIZE);
03050:  MOVLW  01
03052:  MOVWF  FEA
03054:  MOVLW  6F
03056:  MOVWF  FE9
03058:  CLRF   00
0305A:  CLRF   02
0305C:  MOVLW  40
0305E:  MOVWF  01
03060:  MOVLB  0
03062:  CALL   0FBC
....................                 if (currentPacketNum <= 18)
03066:  MOVLB  1
03068:  MOVF   xAF,W
0306A:  SUBLW  12
0306C:  BTFSC  FD8.0
0306E:  BRA    3076
03070:  MOVLB  0
03072:  GOTO   307C
03076:  MOVLB  0
....................                 {
....................                     packet.sub.packetNum = currentPacketNum;
03078:  MOVFF  1AF,16F
....................                 }
....................                 dataIdxInPkt = 0;
0307C:  MOVLB  1
0307E:  CLRF   xB0
03080:  MOVLB  0
....................             }
....................         }
.................... 
....................         // Sampling Rate に応じたウェイト処理
....................         delay_ms(1);
03082:  MOVLW  01
03084:  MOVLB  2
03086:  MOVWF  x24
03088:  MOVLB  0
0308A:  CALL   09C2
0308E:  GOTO   2E70
....................     }
.................... 
....................     // 4. IV計測が完了したら、引き続いて温度計測シーケンスを呼び出す
....................     // パケット19から14パケット分 (パケット19〜32) を敷き詰める
....................     execute_temp_measurement(19, 14);
03092:  MOVLW  13
03094:  MOVLB  1
03096:  MOVWF  xBC
03098:  MOVLW  0E
0309A:  MOVWF  xBD
0309C:  MOVLB  0
0309E:  GOTO   2AE0
.................... 
....................     // 5. 周辺回路の電源OFF
....................     output_low(PIN_LDO_EN);
030A2:  BCF    F96.1
030A4:  BCF    F8D.1
....................     output_low(PIN_VREF_EN);
030A6:  BCF    F96.0
030A8:  BCF    F8D.0
....................     output_low(PIN_LED1);
030AA:  BCF    F92.5
030AC:  BCF    F89.5
.................... 
....................     fprintf(PC, "End CIGS Measurement Sequence\r\n");
030AE:  MOVLW  1A
030B0:  MOVWF  FF6
030B2:  MOVLW  04
030B4:  MOVWF  FF7
030B6:  MOVLW  00
030B8:  MOVWF  FF8
030BA:  CALL   0A42
.................... 
....................     // フラッシュのアドレス管理領域をまとめて更新
....................     write_misf_address_area();
030BE:  CALL   1F30
030C2:  GOTO   3158 (RETURN)
.................... }
.................... 
.................... #include "../core/measurement/son_tmp_temp.c"
.................... #include "son_tmp_temp.h"
.................... #ifndef son_tmp_TEMP_H
.................... #define son_tmp_TEMP_H
.................... 
.................... #include <stdint.h>
.................... #include <stdbool.h>
.................... #include "../../system/son_tmp_config.h"
.................... 
.................... // ============================================================================
.................... // 温度データ用パケット構造体 (64Byte)
.................... // ============================================================================
.................... typedef struct
.................... {
....................     uint8_t packetNum;       // パケット番号 (1 Byte)
....................     uint8_t tempData[62];    // 温度データ本体 (62 Byte = 12bit x 41データ)
....................     uint8_t crc8;            // CRC-8 (1 Byte)
.................... } TempPacket;
.................... 
.................... // メモリバッファ用共用体
.................... typedef union
.................... {
....................     uint8_t raw[PACKET_SIZE];
....................     TempPacket temp;
.................... } TempPacketBuffer;
.................... 
.................... // ============================================================================
.................... // 外部公開関数プロトタイプ
.................... // ============================================================================
.................... 
.................... // 内蔵ADCの初期化
.................... void temp_io_init(void);
.................... 
.................... // 内蔵ADCから温度センサーの値を読み取る (12bit)
.................... uint16_t read_adc_internal(void);
.................... 
.................... // 温度計測シーケンスの実行とFlashへの保存
.................... // startPacketNum: 開始パケット番号 (19)
.................... // packetCount: 実行するパケット数 (14)
.................... void execute_temp_measurement(uint8_t startPacketNum, uint8_t packetCount);
.................... 
.................... #endif // son_tmp_TEMP_H
.................... 
.................... #include "../../hardware/mcu/timer.h"
.................... #ifndef TIMER_H
.................... #define TIMER_H
.................... 
.................... #include <stdint.h>
.................... 
.................... // __________ values _________
.................... 
.................... // パケットヘッダーの timestamp で使用するための秒カウンタ
.................... extern volatile uint32_t sec;
.................... 
.................... 
.................... // __________ functions _________
.................... uint32_t get_current_sec();
.................... void set_current_sec(uint32_t new_sec);
.................... void setup_timer();
.................... 
.................... #INT_TIMER1
.................... void TIMER1_isr();
.................... 
.................... #endif
.................... 
.................... #include "../storage/son_tmp_flash.h"
.................... #ifndef son_tmp_FLASH_H
.................... #define son_tmp_FLASH_H
.................... 
.................... #include <stdint.h>
.................... #include <string.h>
.................... #include "../../system/son_tmp_config.h"
.................... 
.................... // 共通ライブラリのヘッダ (MissionIDなどの定数用)
.................... // #include "../../../lib/communication/typedef_content.h"
.................... // #include "../../../lib/communication/value_status.h"
.................... 
.................... // ============================================================================
.................... // メモリマップ定義 (MT25QL128ABA: 16MB)
.................... // ============================================================================
.................... #define MISF_START 0x00000000
.................... #define MISF_END   0x00FFFFFF
.................... 
.................... #define SECTOR_64K_BYTE  0x10000
.................... 
.................... #define MISF_CIGS_DATA_TABLE_SIZE 64
.................... 
.................... #define MISF_CIGS_DATA_TABLE_START 0x00000000
.................... #define MISF_CIGS_DATA_TABLE_END   0x00000FFF
.................... #define MISF_CIGS_PICLOG_START     0x00010000
.................... #define MISF_CIGS_PICLOG_END       0x00140FFF
.................... #define MISF_CIGS_ENVIRO_START     0x00281000
.................... #define MISF_CIGS_ENVIRO_END       0x00320FFF
.................... #define MISF_CIGS_IV_HEADER_START  0x00721000
.................... #define MISF_CIGS_IV_HEADER_END    0x007C0FFF
.................... #define MISF_CIGS_IV_DATA_START    0x007C1000
.................... #define MISF_CIGS_IV_DATA_END      0x00D00000
.................... 
.................... // ============================================================================
.................... // データ構造体定義
.................... // ============================================================================
.................... 
.................... // フラッシュカウンタ構造体 (11 Bytes)
.................... typedef struct
.................... {
....................     uint8_t   mission_id;
....................     uint32_t  used_counter;
....................     uint32_t  uncopied_counter;
....................     uint8_t   reserve_counter1;
....................     uint8_t   reserve_counter2;
.................... } Flash_t;
.................... 
.................... // テーブル保存用の64Byteパケット構造体
.................... typedef union
.................... {
....................     struct
....................     {
....................         union
....................         {
....................             struct
....................             {
....................                 Flash_t piclog;
....................                 Flash_t environment;
....................                 Flash_t iv_header;
....................                 Flash_t iv_data;
....................             } logdata;
....................             uint8_t reserve[63];
....................         } payload;
....................         uint8_t crc; // 1バイトのCRC
....................     } packet;
....................     uint8_t bytes[64];
.................... } FlashData_t;
.................... 
.................... typedef struct
.................... {
....................     uint32_t start_address;
....................     uint32_t end_address;
.................... } MisfStatusStruct;
.................... 
.................... typedef struct
.................... {
....................     uint32_t start_address;
....................     uint32_t size;
.................... } MisfWriteStruct;
.................... 
.................... // ============================================================================
.................... // グローバル変数 (宣言のみ、実体は.cファイルに記述)
.................... // ============================================================================
.................... extern Flash_t piclog_data;
.................... extern Flash_t environment_data;
.................... extern Flash_t iv_header;
.................... extern Flash_t iv_data;
.................... 
.................... // ============================================================================
.................... // 外部公開関数プロトタイプ
.................... // ============================================================================
.................... void misf_init(void);
.................... FlashData_t make_flash_data_table(void);
.................... void write_misf_address_area(void);
.................... MisfStatusStruct get_misf_status_struct(uint8_t mission_id);
.................... MisfWriteStruct get_misf_write_struct(uint8_t mission_id);
.................... void print_flash_status(void);
.................... 
.................... #endif // son_tmp_FLASH_H
.................... 
.................... #include "../../../lib/tool/calc_tools.h"
.................... #ifndef CALC_TOOLS_H
.................... #define CALC_TOOLS_H
....................  
.................... unsigned int8 calc_crc8(unsigned int8 *frame, unsigned int8 payload_size);
.................... int1 is_crc_valid(unsigned int8 *frame, int8 payload_size);
.................... void int32_to_be_array(int32 value, int8 *buf, int8 index);
.................... int32 lsb_array_to_int32(int8 *buf, int8 index);
.................... unsigned int32 lsb_to_msb(unsigned int32 value);
.................... unsigned int32 msb_to_lsb(unsigned int32 value);
.................... 
.................... 
.................... #endif // CALC_TOOLS_H  
.................... 
.................... #include "../../../lib/device/mt25q.h"
.................... #ifndef MT25Q_H
.................... #define MT25Q_H
.................... 
.................... // =========
.................... //#define MT25Q_DEBUG
.................... // =========
.................... 
.................... 
.................... #define FLASH_STREAM0 MIS_FM_STREAM     // <- Align the names to `config.h` Stream name
.................... #define FLASH_STREAM1 SMF_STREAM
.................... #define FLASH_STREAM2 SMF_STREAM // dont use
.................... #define FLASH_STREAM3 SMF_STREAM // dont use
.................... 
.................... typedef enum spi_stream{
....................     SPI_0,
....................     SPI_1,
....................     SPI_2,
....................     SPI_3,
.................... }SpiStreamId;
.................... 
.................... #define MT25QL128ABA 0x00     //Mission Flash
.................... #define MT25QL01GBBB 0x01     //SMF,CF
.................... typedef struct select_stream_to_flash{
....................     SpiStreamId spi_stream_id;
....................     unsigned int8 flash_model;
....................     int16 cs_pin;
.................... }Flash;
.................... 
.................... 
.................... Flash mis_fm = {SPI_0, MT25QL128ABA, MIS_FM_CS};
.................... Flash smf = {SPI_1, MT25QL01GBBB, SMF_CS};
.................... 
.................... 
.................... 
.................... // ===================== Function List =====================
.................... // Public Functions
.................... 
.................... int1 is_connect(Flash flash_stream);
.................... 
.................... void write_data_bytes(Flash flash_stream, unsigned int32 write_start_address, int8 *write_data, unsigned int16 write_amount);      
.................... 
.................... void read_data_bytes(Flash flash_stream, unsigned int32 read_start_address, int8 *read_data, unsigned int32 read_amount);  
.................... 
.................... void sector_erase(Flash flash_stream, unsigned int32 sector_address);
.................... 
.................... void subsector_32kByte_erase(Flash flash_stream, unsigned int32 subsector_address);  
....................                                
.................... void subsector_4kByte_erase(Flash flash_stream, unsigned int32 subsector_address);      
.................... 
.................... //Private Functions
....................  
.................... void flash_setting(Flash flash_stream);
....................  
.................... int8 status_register(Flash flash_stream);
....................  
.................... int8 read_id(Flash flash_stream);
....................  
.................... int8 read_data_byte(Flash flash_stream, unsigned int32 read_address);                                               
....................  
.................... void write_data_byte(Flash flash_stream, unsigned int32 write_address,int8 write_data);                             
....................         //
.................... 
.................... 
.................... // ===================== Flash Commands =====================
.................... #define CMD_READ_ID                     0x9F
.................... #define CMD_READ_STATUS_REGISTER        0x05
.................... #define CMD_READ                        0x03//for MT25QL128ABA
.................... #define CMD_4BYTE_READ                  0x13//for MT25QL01GBBB
.................... #define CMD_WRITE_ENABLE                0x06
.................... #define CMD_PAGE_PROGRAM                0x02//for MT25QL128ABA
.................... #define CMD_4BYTE_PAGE_PROGRAM          0x12//for MT25QL01GBBB
.................... #define CMD_SUBSECTOR_4KB_ERASE         0x20//for MT25QL128ABA
.................... #define CMD_4BYTE_SUBSECTOR_4KB_ERASE   0x21//for MT25QL01GBBB
.................... #define CMD_SUBSECTOR_32KB_ERASE        0x52//for MT25QL128ABA
.................... #define CMD_4BYTE_SUBSECTOR_32KB_ERASE  0x5C//for MT25QL01GBBB
.................... #define CMD_SECTOR_ERASE                0xD8//for MT25QL128ABA
.................... #define CMD_4BYTE_SECTOR_ERASE          0xDC//for MT25QL01GBBB
.................... 
.................... // ====================== Value List =====================
.................... #define MANUFACTURER_ID_MICRON 0x20 // Manufacturer ID for Micron flash
.................... #define READ_ID_DATASIZE 20 // 20 bytes for read ID data
.................... 
.................... 
.................... // ====================== Data Structures =====================
.................... typedef union
.................... {
....................     unsigned int8 bytes[READ_ID_DATASIZE]; // 20 bytes for read ID
....................     struct {
....................         unsigned int8 manufacturer_id; // 1 byte
....................         unsigned int8 memory_type;     // 1 byte
....................         unsigned int8 capacity;        // 1 byte
....................         unsigned int8 reserved;       // 1 byte
....................     } fields;
.................... }READ_ID_DATA;
.................... 
.................... 
.................... #endif
.................... 
.................... 
.................... 
.................... 
.................... // ============================================================================
.................... // ハードウェア・ペリフェラル制御 (PIC内蔵ADC)
.................... // ============================================================================
.................... 
.................... void temp_io_init(void)
.................... {
....................     fprintf(PC, "Temp IO Initialize\r\n");
*
00AA8:  MOVLW  3A
00AAA:  MOVWF  FF6
00AAC:  MOVLW  04
00AAE:  MOVWF  FF7
00AB0:  MOVLW  00
00AB2:  MOVWF  FF8
00AB4:  CALL   0A42
.................... 
....................     // ※ 実際のハードウェア配線に合わせて sANx (アナログピン) を調整してください
....................     // ここでは仮に AN0 (sAN0) を使用する設定としています
....................     setup_adc_ports(sAN0);
00AB8:  MOVLB  E
00ABA:  CLRF   x45
00ABC:  CLRF   x46
00ABE:  MOVLW  01
00AC0:  MOVWF  x47
00AC2:  BCF    x8D.7
00AC4:  BCF    x8D.6
00AC6:  BCF    x8D.5
....................     setup_adc(ADC_CLOCK_INTERNAL);
00AC8:  MOVLW  9F
00ACA:  MOVWF  x8B
00ACC:  CLRF   x8A
00ACE:  MOVLW  70
00AD0:  MOVWF  FC0
00AD2:  MOVLW  82
00AD4:  MOVWF  FC1
....................     set_adc_channel(0);
00AD6:  CLRF   x86
.................... 
....................     fprintf(PC, "\tComplete\r\n");
00AD8:  MOVLW  50
00ADA:  MOVWF  FF6
00ADC:  MOVLW  04
00ADE:  MOVWF  FF7
00AE0:  MOVLW  00
00AE2:  MOVWF  FF8
00AE4:  MOVLB  0
00AE6:  CALL   0A42
00AEA:  GOTO   0B26 (RETURN)
.................... }
.................... 
.................... uint16_t read_adc_internal(void)
.................... {
....................     // ADCのチャネル切り替え・サンプリング安定待ち
....................     delay_us(20);
*
02AC0:  MOVLW  1A
02AC2:  MOVWF  00
02AC4:  DECFSZ 00,F
02AC6:  BRA    2AC4
02AC8:  NOP   
.................... 
....................     // PIC18F67J94の12bit ADC値を読み取って返す
....................     return read_adc();
02ACA:  BCF    FC0.0
02ACC:  BSF    FC0.1
02ACE:  BTFSS  FC0.0
02AD0:  GOTO   2ACE
02AD4:  MOVF   FC3,W
02AD6:  CLRF   03
02AD8:  MOVWF  01
02ADA:  MOVF   03,W
02ADC:  MOVWF  02
02ADE:  RETURN 0
.................... }
.................... 
.................... // ============================================================================
.................... // 温度計測シーケンスとデータパッキング
.................... // ============================================================================
.................... 
.................... void execute_temp_measurement(uint8_t startPacketNum, uint8_t packetCount)
02AE0:  MOVFF  1BC,1FE
02AE4:  MOVLB  1
02AE6:  MOVF   xBD,W
02AE8:  ADDWF  xBC,W
02AEA:  ADDLW  FF
02AEC:  MOVWF  xFF
.................... {
....................     TempPacketBuffer packet;
....................     uint8_t currentPacketNum = startPacketNum;
....................     uint8_t endPacketNum = startPacketNum + packetCount - 1;
.................... 
....................     fprintf(PC, "Start Temp Measurement (Packets %u to %u)\r\n", startPacketNum, endPacketNum);
02AEE:  MOVLW  5C
02AF0:  MOVWF  FF6
02AF2:  MOVLW  04
02AF4:  MOVWF  FF7
02AF6:  MOVLW  00
02AF8:  MOVWF  FF8
02AFA:  MOVLW  20
02AFC:  MOVLB  2
02AFE:  MOVWF  x0C
02B00:  MOVLB  0
02B02:  CALL   0A72
02B06:  MOVFF  1BC,20C
02B0A:  MOVLW  1B
02B0C:  MOVLB  2
02B0E:  MOVWF  x0D
02B10:  MOVLB  0
02B12:  CALL   297C
02B16:  MOVLW  7E
02B18:  MOVWF  FF6
02B1A:  MOVLW  04
02B1C:  MOVWF  FF7
02B1E:  MOVLW  00
02B20:  MOVWF  FF8
02B22:  MOVLW  04
02B24:  MOVLB  2
02B26:  MOVWF  x0C
02B28:  MOVLB  0
02B2A:  CALL   0A72
02B2E:  MOVFF  1FF,20C
02B32:  MOVLW  1B
02B34:  MOVLB  2
02B36:  MOVWF  x0D
02B38:  MOVLB  0
02B3A:  CALL   297C
02B3E:  MOVLW  84
02B40:  MOVWF  FF6
02B42:  MOVLW  04
02B44:  MOVWF  FF7
02B46:  MOVLW  00
02B48:  MOVWF  FF8
02B4A:  MOVLW  03
02B4C:  MOVLB  2
02B4E:  MOVWF  x0C
02B50:  MOVLB  0
02B52:  CALL   0A72
.................... 
....................     while (currentPacketNum <= endPacketNum)
02B56:  MOVLB  1
02B58:  MOVF   xFE,W
02B5A:  SUBWF  xFF,W
02B5C:  BTFSC  FD8.0
02B5E:  BRA    2B66
02B60:  MOVLB  0
02B62:  GOTO   2D6E
02B66:  MOVLB  0
....................     {
....................         memset(packet.raw, 0, PACKET_SIZE);
02B68:  MOVLW  01
02B6A:  MOVWF  FEA
02B6C:  MOVLW  BE
02B6E:  MOVWF  FE9
02B70:  CLRF   00
02B72:  CLRF   02
02B74:  MOVLW  40
02B76:  MOVWF  01
02B78:  CALL   0FBC
....................         packet.temp.packetNum = currentPacketNum;
02B7C:  MOVFF  1FE,1BE
.................... 
....................         uint8_t idx = 0;
02B80:  MOVLB  2
02B82:  CLRF   x00
.................... 
....................         // 1. 2つの12bitデータを3Byteに圧縮する処理 (20ペア = 40データ)
....................         for (uint8_t i = 0; i < 20; i++)
02B84:  CLRF   x01
02B86:  MOVLB  0
02B88:  MOVLB  2
02B8A:  MOVF   x01,W
02B8C:  SUBLW  13
02B8E:  BTFSC  FD8.0
02B90:  BRA    2B98
02B92:  MOVLB  0
02B94:  GOTO   2C56
02B98:  MOVLB  0
....................         {
....................             uint16_t temp1 = read_adc_internal();
....................             uint16_t temp2 = read_adc_internal();
02B9A:  CALL   2AC0
02B9E:  MOVFF  02,203
02BA2:  MOVFF  01,202
02BA6:  CALL   2AC0
02BAA:  MOVFF  02,205
02BAE:  MOVFF  01,204
.................... 
....................             // temp1の上位8bit
....................             packet.temp.tempData[idx++] = (temp1 >> 4) & 0xFF;
02BB2:  MOVLB  2
02BB4:  MOVF   x00,W
02BB6:  INCF   x00,F
02BB8:  CLRF   03
02BBA:  ADDLW  BF
02BBC:  MOVWF  FE9
02BBE:  MOVLW  01
02BC0:  ADDWFC 03,W
02BC2:  MOVWF  FEA
02BC4:  RRCF   x03,W
02BC6:  MOVWF  x0F
02BC8:  RRCF   x02,W
02BCA:  MOVWF  x0E
02BCC:  RRCF   x0F,F
02BCE:  RRCF   x0E,F
02BD0:  RRCF   x0F,F
02BD2:  RRCF   x0E,F
02BD4:  RRCF   x0F,F
02BD6:  RRCF   x0E,F
02BD8:  MOVLW  0F
02BDA:  ANDWF  x0F,F
02BDC:  MOVF   x0E,W
02BDE:  MOVWF  00
02BE0:  CLRF   03
02BE2:  MOVF   00,W
02BE4:  MOVWF  FEF
....................             // temp1の下位4bit + temp2の上位4bit
....................             packet.temp.tempData[idx++] = ((temp1 & 0x0F) << 4) | ((temp2 >> 8) & 0x0F);
02BE6:  MOVF   x00,W
02BE8:  INCF   x00,F
02BEA:  CLRF   03
02BEC:  ADDLW  BF
02BEE:  MOVWF  FE9
02BF0:  MOVLW  01
02BF2:  ADDWFC 03,W
02BF4:  MOVWF  FEA
02BF6:  MOVF   x02,W
02BF8:  ANDLW  0F
02BFA:  MOVWF  x0E
02BFC:  CLRF   x0F
02BFE:  RLCF   x0E,F
02C00:  RLCF   x0F,F
02C02:  RLCF   x0E,F
02C04:  RLCF   x0F,F
02C06:  RLCF   x0E,F
02C08:  RLCF   x0F,F
02C0A:  RLCF   x0E,F
02C0C:  RLCF   x0F,F
02C0E:  MOVLW  F0
02C10:  ANDWF  x0E,F
02C12:  MOVFF  205,210
02C16:  CLRF   x11
02C18:  MOVF   x10,W
02C1A:  ANDLW  0F
02C1C:  MOVWF  00
02C1E:  CLRF   03
02C20:  MOVF   00,W
02C22:  IORWF  x0E,W
02C24:  MOVWF  00
02C26:  MOVF   03,W
02C28:  IORWF  x0F,W
02C2A:  MOVWF  03
02C2C:  MOVF   00,W
02C2E:  MOVWF  FEF
....................             // temp2の下位8bit
....................             packet.temp.tempData[idx++] = temp2 & 0xFF;
02C30:  MOVF   x00,W
02C32:  INCF   x00,F
02C34:  CLRF   03
02C36:  ADDLW  BF
02C38:  MOVWF  FE9
02C3A:  MOVLW  01
02C3C:  ADDWFC 03,W
02C3E:  MOVWF  FEA
02C40:  MOVF   x04,W
02C42:  MOVWF  00
02C44:  CLRF   03
02C46:  MOVF   00,W
02C48:  MOVWF  FEF
02C4A:  MOVLB  0
02C4C:  MOVLB  2
02C4E:  INCF   x01,F
02C50:  MOVLB  0
02C52:  GOTO   2B88
....................         }
.................... 
....................         // 2. 最後の2Byteに1つの12bitデータと4bitの0fillを格納 (41データ目)
....................         uint16_t temp3 = read_adc_internal();
02C56:  CALL   2AC0
02C5A:  MOVFF  02,207
02C5E:  MOVFF  01,206
....................         packet.temp.tempData[idx++] = (temp3 >> 4) & 0xFF;
02C62:  MOVLB  2
02C64:  MOVF   x00,W
02C66:  INCF   x00,F
02C68:  CLRF   03
02C6A:  ADDLW  BF
02C6C:  MOVWF  FE9
02C6E:  MOVLW  01
02C70:  ADDWFC 03,W
02C72:  MOVWF  FEA
02C74:  RRCF   x07,W
02C76:  MOVWF  x0F
02C78:  RRCF   x06,W
02C7A:  MOVWF  x0E
02C7C:  RRCF   x0F,F
02C7E:  RRCF   x0E,F
02C80:  RRCF   x0F,F
02C82:  RRCF   x0E,F
02C84:  RRCF   x0F,F
02C86:  RRCF   x0E,F
02C88:  MOVLW  0F
02C8A:  ANDWF  x0F,F
02C8C:  MOVF   x0E,W
02C8E:  MOVWF  00
02C90:  CLRF   03
02C92:  MOVF   00,W
02C94:  MOVWF  FEF
....................         packet.temp.tempData[idx++] = (temp3 & 0x0F) << 4; // 残り4bitは自動的に0fill
02C96:  MOVF   x00,W
02C98:  INCF   x00,F
02C9A:  CLRF   03
02C9C:  ADDLW  BF
02C9E:  MOVWF  FE9
02CA0:  MOVLW  01
02CA2:  ADDWFC 03,W
02CA4:  MOVWF  FEA
02CA6:  MOVF   x06,W
02CA8:  ANDLW  0F
02CAA:  MOVWF  x0E
02CAC:  CLRF   x0F
02CAE:  RLCF   x0E,W
02CB0:  MOVWF  02
02CB2:  RLCF   x0F,W
02CB4:  MOVWF  03
02CB6:  RLCF   02,F
02CB8:  RLCF   03,F
02CBA:  RLCF   02,F
02CBC:  RLCF   03,F
02CBE:  RLCF   02,F
02CC0:  RLCF   03,F
02CC2:  MOVLW  F0
02CC4:  ANDWF  02,F
02CC6:  MOVF   02,W
02CC8:  MOVWF  FEF
.................... 
....................         // 3. CRC-8の計算と格納
....................         packet.temp.crc8 = calc_crc8(packet.raw, PACKET_SIZE - 1);
02CCA:  MOVLW  01
02CCC:  MOVWF  x43
02CCE:  MOVLW  BE
02CD0:  MOVWF  x42
02CD2:  MOVLW  3F
02CD4:  MOVWF  x44
02CD6:  MOVLB  0
02CD8:  CALL   1ABA
02CDC:  MOVFF  01,1FD
.................... 
....................         // 4. Flashへ書き込み (IVデータ領域にそのまま連ねて保存する)
....................         uint32_t write_address = MISF_CIGS_IV_DATA_START + iv_data.used_counter;
02CE0:  MOVLB  1
02CE2:  MOVF   x37,W
02CE4:  MOVLB  2
02CE6:  MOVWF  x08
02CE8:  MOVLW  10
02CEA:  MOVLB  1
02CEC:  ADDWF  x38,W
02CEE:  MOVLB  2
02CF0:  MOVWF  x09
02CF2:  MOVLW  7C
02CF4:  MOVLB  1
02CF6:  ADDWFC x39,W
02CF8:  MOVLB  2
02CFA:  MOVWF  x0A
02CFC:  MOVLW  00
02CFE:  MOVLB  1
02D00:  ADDWFC x3A,W
02D02:  MOVLB  2
02D04:  MOVWF  x0B
....................         write_data_bytes(mis_fm, write_address, packet.raw, PACKET_SIZE);
02D06:  MOVFF  108,20F
02D0A:  MOVFF  107,20E
02D0E:  MOVFF  106,20D
02D12:  MOVFF  105,20C
02D16:  MOVFF  20B,213
02D1A:  MOVFF  20A,212
02D1E:  MOVFF  209,211
02D22:  MOVFF  208,210
02D26:  MOVLW  01
02D28:  MOVWF  x15
02D2A:  MOVLW  BE
02D2C:  MOVWF  x14
02D2E:  CLRF   x17
02D30:  MOVLW  40
02D32:  MOVWF  x16
02D34:  MOVLB  0
02D36:  CALL   1736
.................... 
....................         // カウンタの更新
....................         iv_data.used_counter += PACKET_SIZE;
02D3A:  MOVLW  40
02D3C:  MOVLB  1
02D3E:  ADDWF  x37,F
02D40:  MOVLW  00
02D42:  ADDWFC x38,F
02D44:  MOVLW  00
02D46:  ADDWFC x39,F
02D48:  MOVLW  00
02D4A:  ADDWFC x3A,F
....................         iv_data.uncopied_counter += PACKET_SIZE;
02D4C:  MOVLW  40
02D4E:  ADDWF  x3B,F
02D50:  MOVLW  00
02D52:  ADDWFC x3C,F
02D54:  MOVLW  00
02D56:  ADDWFC x3D,F
02D58:  MOVLW  00
02D5A:  ADDWFC x3E,F
.................... 
....................         currentPacketNum++;
02D5C:  INCF   xFE,F
.................... 
....................         // 計測間隔のウェイト (必要に応じて調整)
....................         delay_ms(1);
02D5E:  MOVLW  01
02D60:  MOVLB  2
02D62:  MOVWF  x24
02D64:  MOVLB  0
02D66:  CALL   09C2
02D6A:  GOTO   2B56
....................     }
.................... 
....................     fprintf(PC, "End Temp Measurement\r\n");
02D6E:  MOVLW  88
02D70:  MOVWF  FF6
02D72:  MOVLW  04
02D74:  MOVWF  FF7
02D76:  MOVLW  00
02D78:  MOVWF  FF8
02D7A:  CALL   0A42
02D7E:  GOTO   30A2 (RETURN)
.................... }
.................... 
.................... #include "../core/logging/son_tmp_piclog.c"
.................... #include "son_tmp_piclog.h"
.................... #ifndef son_tmp_PICLOG_H
.................... #define son_tmp_PICLOG_H
.................... 
.................... #include <stdint.h>
.................... #include <string.h>
.................... 
.................... // ============================================================================
.................... // PICLOG 定数定義
.................... // ============================================================================
.................... #define PICLOG_STARTUP     0x00
.................... #define PICLOG_PARAM_START 0x00
.................... #define PICLOG_PARAM_END   0xFF
.................... 
.................... #define PICLOG_PACKET_SIZE 6
.................... #define PICLOG_BLANK_SIZE  4
.................... 
.................... // ============================================================================
.................... // PICLOG データ構造体 (6 Byte)
.................... // ============================================================================
.................... typedef union
.................... {
....................     struct
....................     {
....................         uint32_t time;       // 4 Byte: タイムスタンプ
....................         uint8_t  function;   // 1 Byte: 実行関数・イベントID
....................         uint8_t  parameter;  // 1 Byte: パラメータ・状態
....................     } fields;
....................     uint8_t bytes[PICLOG_PACKET_SIZE];
.................... } PICLOG_t;
.................... 
.................... // ============================================================================
.................... // 外部公開関数プロトタイプ
.................... // ============================================================================
.................... 
.................... // ログを作成し、フラッシュメモリに書き込む
.................... // function: イベントID
.................... // parameter: 状態パラメータ
.................... void piclog_make(uint8_t function, uint8_t parameter);
.................... 
.................... #endif // son_tmp_PICLOG_H
.................... 
.................... 
.................... // 必要な外部モジュールのインクルード
.................... #include "../../hardware/mcu/timer.h"
.................... #ifndef TIMER_H
.................... #define TIMER_H
.................... 
.................... #include <stdint.h>
.................... 
.................... // __________ values _________
.................... 
.................... // パケットヘッダーの timestamp で使用するための秒カウンタ
.................... extern volatile uint32_t sec;
.................... 
.................... 
.................... // __________ functions _________
.................... uint32_t get_current_sec();
.................... void set_current_sec(uint32_t new_sec);
.................... void setup_timer();
.................... 
.................... #INT_TIMER1
.................... void TIMER1_isr();
.................... 
.................... #endif
.................... 
.................... #include "../storage/son_tmp_flash.h"
.................... #ifndef son_tmp_FLASH_H
.................... #define son_tmp_FLASH_H
.................... 
.................... #include <stdint.h>
.................... #include <string.h>
.................... #include "../../system/son_tmp_config.h"
.................... 
.................... // 共通ライブラリのヘッダ (MissionIDなどの定数用)
.................... // #include "../../../lib/communication/typedef_content.h"
.................... // #include "../../../lib/communication/value_status.h"
.................... 
.................... // ============================================================================
.................... // メモリマップ定義 (MT25QL128ABA: 16MB)
.................... // ============================================================================
.................... #define MISF_START 0x00000000
.................... #define MISF_END   0x00FFFFFF
.................... 
.................... #define SECTOR_64K_BYTE  0x10000
.................... 
.................... #define MISF_CIGS_DATA_TABLE_SIZE 64
.................... 
.................... #define MISF_CIGS_DATA_TABLE_START 0x00000000
.................... #define MISF_CIGS_DATA_TABLE_END   0x00000FFF
.................... #define MISF_CIGS_PICLOG_START     0x00010000
.................... #define MISF_CIGS_PICLOG_END       0x00140FFF
.................... #define MISF_CIGS_ENVIRO_START     0x00281000
.................... #define MISF_CIGS_ENVIRO_END       0x00320FFF
.................... #define MISF_CIGS_IV_HEADER_START  0x00721000
.................... #define MISF_CIGS_IV_HEADER_END    0x007C0FFF
.................... #define MISF_CIGS_IV_DATA_START    0x007C1000
.................... #define MISF_CIGS_IV_DATA_END      0x00D00000
.................... 
.................... // ============================================================================
.................... // データ構造体定義
.................... // ============================================================================
.................... 
.................... // フラッシュカウンタ構造体 (11 Bytes)
.................... typedef struct
.................... {
....................     uint8_t   mission_id;
....................     uint32_t  used_counter;
....................     uint32_t  uncopied_counter;
....................     uint8_t   reserve_counter1;
....................     uint8_t   reserve_counter2;
.................... } Flash_t;
.................... 
.................... // テーブル保存用の64Byteパケット構造体
.................... typedef union
.................... {
....................     struct
....................     {
....................         union
....................         {
....................             struct
....................             {
....................                 Flash_t piclog;
....................                 Flash_t environment;
....................                 Flash_t iv_header;
....................                 Flash_t iv_data;
....................             } logdata;
....................             uint8_t reserve[63];
....................         } payload;
....................         uint8_t crc; // 1バイトのCRC
....................     } packet;
....................     uint8_t bytes[64];
.................... } FlashData_t;
.................... 
.................... typedef struct
.................... {
....................     uint32_t start_address;
....................     uint32_t end_address;
.................... } MisfStatusStruct;
.................... 
.................... typedef struct
.................... {
....................     uint32_t start_address;
....................     uint32_t size;
.................... } MisfWriteStruct;
.................... 
.................... // ============================================================================
.................... // グローバル変数 (宣言のみ、実体は.cファイルに記述)
.................... // ============================================================================
.................... extern Flash_t piclog_data;
.................... extern Flash_t environment_data;
.................... extern Flash_t iv_header;
.................... extern Flash_t iv_data;
.................... 
.................... // ============================================================================
.................... // 外部公開関数プロトタイプ
.................... // ============================================================================
.................... void misf_init(void);
.................... FlashData_t make_flash_data_table(void);
.................... void write_misf_address_area(void);
.................... MisfStatusStruct get_misf_status_struct(uint8_t mission_id);
.................... MisfWriteStruct get_misf_write_struct(uint8_t mission_id);
.................... void print_flash_status(void);
.................... 
.................... #endif // son_tmp_FLASH_H
.................... 
.................... #include "../../../lib/device/mt25q.h"
.................... #ifndef MT25Q_H
.................... #define MT25Q_H
.................... 
.................... // =========
.................... //#define MT25Q_DEBUG
.................... // =========
.................... 
.................... 
.................... #define FLASH_STREAM0 MIS_FM_STREAM     // <- Align the names to `config.h` Stream name
.................... #define FLASH_STREAM1 SMF_STREAM
.................... #define FLASH_STREAM2 SMF_STREAM // dont use
.................... #define FLASH_STREAM3 SMF_STREAM // dont use
.................... 
.................... typedef enum spi_stream{
....................     SPI_0,
....................     SPI_1,
....................     SPI_2,
....................     SPI_3,
.................... }SpiStreamId;
.................... 
.................... #define MT25QL128ABA 0x00     //Mission Flash
.................... #define MT25QL01GBBB 0x01     //SMF,CF
.................... typedef struct select_stream_to_flash{
....................     SpiStreamId spi_stream_id;
....................     unsigned int8 flash_model;
....................     int16 cs_pin;
.................... }Flash;
.................... 
.................... 
.................... Flash mis_fm = {SPI_0, MT25QL128ABA, MIS_FM_CS};
.................... Flash smf = {SPI_1, MT25QL01GBBB, SMF_CS};
.................... 
.................... 
.................... 
.................... // ===================== Function List =====================
.................... // Public Functions
.................... 
.................... int1 is_connect(Flash flash_stream);
.................... 
.................... void write_data_bytes(Flash flash_stream, unsigned int32 write_start_address, int8 *write_data, unsigned int16 write_amount);      
.................... 
.................... void read_data_bytes(Flash flash_stream, unsigned int32 read_start_address, int8 *read_data, unsigned int32 read_amount);  
.................... 
.................... void sector_erase(Flash flash_stream, unsigned int32 sector_address);
.................... 
.................... void subsector_32kByte_erase(Flash flash_stream, unsigned int32 subsector_address);  
....................                                
.................... void subsector_4kByte_erase(Flash flash_stream, unsigned int32 subsector_address);      
.................... 
.................... //Private Functions
....................  
.................... void flash_setting(Flash flash_stream);
....................  
.................... int8 status_register(Flash flash_stream);
....................  
.................... int8 read_id(Flash flash_stream);
....................  
.................... int8 read_data_byte(Flash flash_stream, unsigned int32 read_address);                                               
....................  
.................... void write_data_byte(Flash flash_stream, unsigned int32 write_address,int8 write_data);                             
....................         //
.................... 
.................... 
.................... // ===================== Flash Commands =====================
.................... #define CMD_READ_ID                     0x9F
.................... #define CMD_READ_STATUS_REGISTER        0x05
.................... #define CMD_READ                        0x03//for MT25QL128ABA
.................... #define CMD_4BYTE_READ                  0x13//for MT25QL01GBBB
.................... #define CMD_WRITE_ENABLE                0x06
.................... #define CMD_PAGE_PROGRAM                0x02//for MT25QL128ABA
.................... #define CMD_4BYTE_PAGE_PROGRAM          0x12//for MT25QL01GBBB
.................... #define CMD_SUBSECTOR_4KB_ERASE         0x20//for MT25QL128ABA
.................... #define CMD_4BYTE_SUBSECTOR_4KB_ERASE   0x21//for MT25QL01GBBB
.................... #define CMD_SUBSECTOR_32KB_ERASE        0x52//for MT25QL128ABA
.................... #define CMD_4BYTE_SUBSECTOR_32KB_ERASE  0x5C//for MT25QL01GBBB
.................... #define CMD_SECTOR_ERASE                0xD8//for MT25QL128ABA
.................... #define CMD_4BYTE_SECTOR_ERASE          0xDC//for MT25QL01GBBB
.................... 
.................... // ====================== Value List =====================
.................... #define MANUFACTURER_ID_MICRON 0x20 // Manufacturer ID for Micron flash
.................... #define READ_ID_DATASIZE 20 // 20 bytes for read ID data
.................... 
.................... 
.................... // ====================== Data Structures =====================
.................... typedef union
.................... {
....................     unsigned int8 bytes[READ_ID_DATASIZE]; // 20 bytes for read ID
....................     struct {
....................         unsigned int8 manufacturer_id; // 1 byte
....................         unsigned int8 memory_type;     // 1 byte
....................         unsigned int8 capacity;        // 1 byte
....................         unsigned int8 reserved;       // 1 byte
....................     } fields;
.................... }READ_ID_DATA;
.................... 
.................... 
.................... #endif
.................... 
.................... 
.................... 
.................... 
.................... // ============================================================================
.................... // グローバル変数
.................... // ============================================================================
.................... // 64Byte境界合わせのための4Byteパディング用データ
.................... uint8_t PICLOG_BLANK_DATA[PICLOG_BLANK_SIZE] = {0x00, 0x00, 0x00, 0x00};
.................... 
.................... // ============================================================================
.................... // ログ作成とフラッシュ保存処理
.................... // ============================================================================
.................... void piclog_make(uint8_t function, uint8_t parameter)
.................... {
....................     PICLOG_t piclog;
....................     memset(piclog.bytes, 0, PICLOG_PACKET_SIZE);
*
01FA6:  MOVLW  01
01FA8:  MOVWF  FEA
01FAA:  MOVLW  6E
01FAC:  MOVWF  FE9
01FAE:  CLRF   00
01FB0:  CLRF   02
01FB2:  MOVLW  06
01FB4:  MOVWF  01
01FB6:  CALL   0FBC
.................... 
....................     // データの設定
....................     piclog.fields.time = get_current_sec();
01FBA:  CALL   13A8
01FBE:  MOVFF  03,171
01FC2:  MOVFF  02,170
01FC6:  MOVFF  01,16F
01FCA:  MOVFF  00,16E
....................     piclog.fields.function = function;
01FCE:  MOVFF  16C,172
....................     piclog.fields.parameter = parameter;
01FD2:  MOVFF  16D,173
.................... 
....................     // UARTへログを出力
....................     fprintf(PC, "\t[PICLOG] : ");
01FD6:  MOVLW  A0
01FD8:  MOVWF  FF6
01FDA:  MOVLW  04
01FDC:  MOVWF  FF7
01FDE:  MOVLW  00
01FE0:  MOVWF  FF8
01FE2:  CALL   0A42
....................     for (uint8_t i = 0; i < PICLOG_PACKET_SIZE; i++)
01FE6:  MOVLB  1
01FE8:  CLRF   x74
01FEA:  MOVLB  0
01FEC:  MOVLB  1
01FEE:  MOVF   x74,W
01FF0:  SUBLW  05
01FF2:  BTFSC  FD8.0
01FF4:  BRA    1FFC
01FF6:  MOVLB  0
01FF8:  GOTO   2036
01FFC:  MOVLB  0
....................     {
....................         fprintf(PC, "%02X ", piclog.bytes[i]);
01FFE:  CLRF   03
02000:  MOVLB  1
02002:  MOVF   x74,W
02004:  ADDLW  6E
02006:  MOVWF  FE9
02008:  MOVLW  01
0200A:  ADDWFC 03,W
0200C:  MOVWF  FEA
0200E:  MOVFF  FEF,179
02012:  MOVFF  179,185
02016:  MOVLW  37
02018:  MOVWF  x86
0201A:  MOVLB  0
0201C:  CALL   13BA
02020:  MOVLW  20
02022:  MOVLB  2
02024:  MOVWF  x10
02026:  MOVLB  0
02028:  CALL   09F0
0202C:  MOVLB  1
0202E:  INCF   x74,F
02030:  MOVLB  0
02032:  GOTO   1FEC
....................     }
....................     fprintf(PC, "\r\n");
02036:  MOVLW  0D
02038:  MOVLB  2
0203A:  MOVWF  x10
0203C:  MOVLB  0
0203E:  CALL   09F0
02042:  MOVLW  0A
02044:  MOVLB  2
02046:  MOVWF  x10
02048:  MOVLB  0
0204A:  CALL   09F0
.................... 
....................     // 1. Flashへ書き込み (6 Byte)
....................     uint32_t write_address = MISF_CIGS_PICLOG_START + piclog_data.used_counter;
0204E:  MOVLB  1
02050:  MOVF   x16,W
02052:  MOVWF  x75
02054:  MOVF   x17,W
02056:  MOVWF  x76
02058:  MOVLW  01
0205A:  ADDWF  x18,W
0205C:  MOVWF  x77
0205E:  MOVLW  00
02060:  ADDWFC x19,W
02062:  MOVWF  x78
....................     write_data_bytes(mis_fm, write_address, piclog.bytes, PICLOG_PACKET_SIZE);
02064:  MOVFF  108,20F
02068:  MOVFF  107,20E
0206C:  MOVFF  106,20D
02070:  MOVFF  105,20C
02074:  MOVFF  178,213
02078:  MOVFF  177,212
0207C:  MOVFF  176,211
02080:  MOVFF  175,210
02084:  MOVLW  01
02086:  MOVLB  2
02088:  MOVWF  x15
0208A:  MOVLW  6E
0208C:  MOVWF  x14
0208E:  CLRF   x17
02090:  MOVLW  06
02092:  MOVWF  x16
02094:  MOVLB  0
02096:  CALL   1736
.................... 
....................     // カウンタの更新
....................     piclog_data.used_counter += PICLOG_PACKET_SIZE;
0209A:  MOVLW  06
0209C:  MOVLB  1
0209E:  ADDWF  x16,F
020A0:  MOVLW  00
020A2:  ADDWFC x17,F
020A4:  MOVLW  00
020A6:  ADDWFC x18,F
020A8:  MOVLW  00
020AA:  ADDWFC x19,F
....................     piclog_data.uncopied_counter += PICLOG_PACKET_SIZE;
020AC:  MOVLW  06
020AE:  ADDWF  x1A,F
020B0:  MOVLW  00
020B2:  ADDWFC x1B,F
020B4:  MOVLW  00
020B6:  ADDWFC x1C,F
020B8:  MOVLW  00
020BA:  ADDWFC x1D,F
....................     piclog_data.reserve_counter1 += PICLOG_PACKET_SIZE;
020BC:  MOVLW  06
020BE:  ADDWF  x1E,F
.................... 
....................     // 2. ページ境界(64Byte)の管理
....................     // 次に6Byteを書き込むと64Byteを超える場合(現在60Byte書き込み済みの場合)は、残りの4Byteをゼロで埋める
....................     if (piclog_data.reserve_counter1 + PICLOG_PACKET_SIZE >= PACKET_SIZE)
020C0:  MOVLW  06
020C2:  ADDWF  x1E,W
020C4:  SUBLW  3F
020C6:  BTFSS  FD8.0
020C8:  BRA    20D0
020CA:  MOVLB  0
020CC:  GOTO   2144
020D0:  MOVLB  0
....................     {
....................         write_address = MISF_CIGS_PICLOG_START + piclog_data.used_counter;
020D2:  MOVLB  1
020D4:  MOVF   x16,W
020D6:  MOVWF  x75
020D8:  MOVF   x17,W
020DA:  MOVWF  x76
020DC:  MOVLW  01
020DE:  ADDWF  x18,W
020E0:  MOVWF  x77
020E2:  MOVLW  00
020E4:  ADDWFC x19,W
020E6:  MOVWF  x78
....................         write_data_bytes(mis_fm, write_address, PICLOG_BLANK_DATA, PICLOG_BLANK_SIZE);
020E8:  MOVFF  108,20F
020EC:  MOVFF  107,20E
020F0:  MOVFF  106,20D
020F4:  MOVFF  105,20C
020F8:  MOVFF  178,213
020FC:  MOVFF  177,212
02100:  MOVFF  176,211
02104:  MOVFF  175,210
02108:  MOVLW  01
0210A:  MOVLB  2
0210C:  MOVWF  x15
0210E:  MOVLW  44
02110:  MOVWF  x14
02112:  CLRF   x17
02114:  MOVLW  04
02116:  MOVWF  x16
02118:  MOVLB  0
0211A:  CALL   1736
.................... 
....................         // パディング分のカウンタ更新
....................         piclog_data.used_counter += PICLOG_BLANK_SIZE;
0211E:  MOVLW  04
02120:  MOVLB  1
02122:  ADDWF  x16,F
02124:  MOVLW  00
02126:  ADDWFC x17,F
02128:  MOVLW  00
0212A:  ADDWFC x18,F
0212C:  MOVLW  00
0212E:  ADDWFC x19,F
....................         piclog_data.uncopied_counter += PICLOG_BLANK_SIZE;
02130:  MOVLW  04
02132:  ADDWF  x1A,F
02134:  MOVLW  00
02136:  ADDWFC x1B,F
02138:  MOVLW  00
0213A:  ADDWFC x1C,F
0213C:  MOVLW  00
0213E:  ADDWFC x1D,F
....................         piclog_data.reserve_counter1 = 0; // 次の64Byteブロックのためにリセット
02140:  CLRF   x1E
02142:  MOVLB  0
....................     }
.................... 
....................     // フラッシュのアドレス管理領域を更新
....................     write_misf_address_area();
02144:  CALL   1F30
02148:  RETURN 0
.................... }
.................... 
.................... #include "../core/storage/son_tmp_smf.c"
.................... #include "son_tmp_smf.h"
.................... #ifndef son_tmp_SMF_H
.................... #define son_tmp_SMF_H
.................... 
.................... #include <stdint.h>
.................... ///////////////////////////////////////////////////////////////////////////
.................... ////                                                                   ////
.................... ////                           stdint.h                                ////
.................... ////                                                                   ////
.................... //// Standard integer definitions.                                     ////
.................... ////                                                                   ////
.................... ///////////////////////////////////////////////////////////////////////////
.................... ////        (C) Copyright 1996,2008 Custom Computer Services           ////
.................... //// This source code may only be used by licensed users of the CCS C  ////
.................... //// compiler.  This source code may only be distributed to other      ////
.................... //// licensed users of the CCS C compiler.  No other use, reproduction ////
.................... //// or distribution is permitted without written permission.          ////
.................... //// Derivative programs created using this software in object code    ////
.................... //// form are not restricted in any way.                               ////
.................... ///////////////////////////////////////////////////////////////////////////
.................... 
.................... #ifndef _STDINT
.................... 
.................... #define _STDINT
.................... 
.................... //////////// exact width
.................... 
.................... typedef signed int8 int8_t;
.................... typedef unsigned int8 uint8_t;
.................... typedef signed int16 int16_t;
.................... typedef unsigned int16 uint16_t;
.................... typedef signed int32 int32_t;
.................... typedef unsigned int32 uint32_t;
.................... 
.................... #if defined(__PCD__)
.................... //typedef signed int24 int24_t;
.................... //typedef unsigned int24 uint24_t;
.................... typedef signed int64 int64_t;
.................... typedef unsigned int64 uint64_t;
.................... #endif
.................... 
.................... #define INT8_MAX  (127)
.................... #define INT8_MIN  (-128)
.................... #define UINT8_MAX (255)
.................... 
.................... #define INT16_MAX  (32767)
.................... #define INT16_MIN  (-32768)
.................... #define UINT16_MAX (65535)
.................... 
.................... #define INT32_MAX  (2147483647)
.................... #define INT32_MIN  (-2147483648)
.................... #define UINT32_MAX (4294967295)
.................... 
.................... #if defined(__PCD__)
.................... //#define INT24_MAX  (8388607)
.................... //#define INT24_MIN  (-8388608)
.................... //#define UINT24_MAX (16777215)
.................... 
.................... #define INT64_MAX  (9223372036854775807)
.................... #define INT64_MIN  (-9223372036854775808)
.................... #define UINT64_MAX (18446744073709551615)
.................... #endif
.................... 
.................... ///////// minimum width
.................... 
.................... typedef signed int8 int_least8_t;
.................... typedef unsigned int8 uint_least8_t;
.................... typedef signed int16 int_least16_t;
.................... typedef unsigned int16 uint_least16_t;
.................... typedef signed int32 int_least32_t;
.................... typedef unsigned int32 uint_least32_t;
.................... 
.................... #if defined(__PCD__)
.................... //typedef signed int24 int_least24_t;
.................... //typedef unsigned int24 uint_least24_t;
.................... typedef signed int64 int_least64_t;
.................... typedef unsigned int64 uint_least64_t;
.................... #endif
.................... 
.................... #define INT_LEAST8_MAX  (127)
.................... #define INT_LEAST8_MIN  (-128)
.................... #define UINT_LEAST8_MAX (255)
.................... 
.................... #define INT_LEAST16_MAX  (32767)
.................... #define INT_LEAST16_MIN  (-32768)
.................... #define UINT_LEAST16_MAX (65535)
.................... 
.................... #define INT_LEAST32_MAX  (2147483647)
.................... #define INT_LEAST32_MIN  (-2147483648)
.................... #define UINT_LEAST32_MAX (4294967295)
.................... 
.................... #if defined(__PCD__)
.................... //#define INT_LEAST24_MAX  (8388607)
.................... //#define INT_LEAST24_MIN  (-8388608)
.................... //#define UINT_LEAST24_MAX (16777215)
.................... 
.................... #define INT_LEAST64_MAX  (9223372036854775807)
.................... #define INT_LEAST64_MIN  (-9223372036854775808)
.................... #define UINT_LEAST64_MAX (18446744073709551615)
.................... #endif
.................... 
.................... ///////// fastest width
.................... 
.................... #if defined(__PCD__)
.................... typedef signed int16 int_fast8_t;
.................... typedef unsigned int16 uint_fast8_t;
.................... #define INT_FAST8_MAX  (32767)
.................... #define INT_FAST8_MIN  (-32768)
.................... #define UINT_FAST8_MAX (65535)
.................... typedef signed int16 int_fast16_t;
.................... typedef unsigned int16 uint_fast16_t;
.................... //typedef signed int24 int_fast24_t;
.................... //typedef unsigned int24 uint_fast24_t;
.................... typedef signed int64 int_fast64_t;
.................... typedef unsigned int64 uint_fast64_t;
.................... #else
.................... typedef signed int8 int_fast8_t;
.................... typedef unsigned int8 uint_fast8_t;
.................... #define INT_FAST8_MAX  (127)
.................... #define INT_FAST8_MIN  (-128)
.................... #define UINT_FAST8_MAX (255)
.................... typedef signed int16 int_fast16_t;
.................... typedef unsigned int16 uint_fast16_t;
.................... #endif
.................... 
.................... typedef signed int32 int_fast32_t;
.................... typedef unsigned int32 uint_fast32_t;
.................... 
.................... #define INT_FAST16_MAX  (32767)
.................... #define INT_FAST16_MIN  (-32768)
.................... #define UINT_FAST16_MAX (65535)
.................... 
.................... #define INT_FAST32_MAX  (2147483647)
.................... #define INT_FAST32_MIN  (-2147483648)
.................... #define UINT_FAST32_MAX (4294967295)
.................... 
.................... #if defined(__PCD__)
.................... //#define INT_FAST24_MAX  (8388607)
.................... //#define INT_FAST24_MIN  (-8388608)
.................... //#define UINT_FAST24_MAX (16777215)
.................... 
.................... #define INT_FAST64_MAX  (9223372036854775807)
.................... #define INT_FAST64_MIN  (-9223372036854775808)
.................... #define UINT_FAST64_MAX (18446744073709551615)
.................... #endif
.................... 
.................... //////////// big enough to hold pointers (OPTIONAL)
.................... 
.................... #if defined(__PCD__)
....................    typedef unsigned int32 uintptr_t;
....................    typedef signed int32 intptr_t;
.................... #else
....................    typedef unsigned int16 uintptr_t;
....................    typedef signed int16 intptr_t;
.................... #endif
.................... 
.................... #define INT8_C(val) ((int8_t)val)
.................... #define UINT8_C(val) ((uint8_t)val)
.................... #define INT16_C(val) ((int16_t)val)
.................... #define UINT16_C(val) ((uint16_t)val)
.................... #define INT32_C(val) ((int32_t)val)
.................... #define UINT32_C(val) ((uint32_t)val)
.................... 
.................... #if defined(__PCD__)
.................... #define INT64_C(val) ((int64_t)val)
.................... #define UINT64_C(val) ((uint64_t)val)
.................... #endif
.................... 
.................... /// TODO:
.................... /// INTPTRN_MIN INTPTRN_MAX UINTPTRN_MAX
.................... 
.................... 
.................... /////////// greatest width (OPTIONAL)
.................... 
.................... #ifdef __PCD__
....................    typedef signed int64 intmax_t;
....................    typedef unsigned int64 uintmax_t;
....................    
....................    #define INTMAXN_MAX  (9223372036854775807)
....................    #define INTMAXN_MIN  (-9223372036854775808)
....................    #define UINTMAXN_MAX (18446744073709551615)
....................    
....................    #define INTMAX_C(value) ((signed int64)val)
....................    #define UINTMAX_C(value) ((unsigned int64)val)
.................... #else
....................    typedef signed int32 intmax_t;
....................    typedef unsigned int32 uintmax_t;
....................    
....................    #define INTMAXN_MAX  (2147483647)
....................    #define INTMAXN_MIN  (-2147483648)
....................    #define UINTMAXN_MAX (4294967295)
....................    
....................    #define INTMAX_C(value) ((signed int32)val)
....................    #define UINTMAX_C(value) ((unsigned int32)val)
.................... #endif
.................... 
.................... 
.................... #endif
.................... 
.................... 
.................... #include "../../system/son_tmp_config.h"
.................... #ifndef son_tmp_CONFIG_H
.................... #define son_tmp_CONFIG_H
.................... 
.................... #define SELF_DEVICE_ID CIGS_PIC
.................... 
.................... #include <18F67J94.h>
.................... #opt 0 // 0 = no optimization
.................... 
.................... #use delay(crystal=16MHz)
.................... #fuses HS, NOWDT, NOBROWNOUT, NOPROTECT
.................... 
.................... #define PIC18
.................... 
.................... #ifdef PIC18
....................     // ==========================================
....................     // 1. ハードウェア構成とピンアサイン
....................     // ==========================================
.................... 
....................     #define PIN_LDO_EN          PIN_E1
....................     #define PIN_VREF_EN         PIN_E0
....................     #define PIN_LED1            PIN_A5
....................     #define PIN_LED2            PIN_A1
.................... 
....................     #define PIN_SW_DIO1         PIN_C1
....................     #define PIN_SW_DIO0         PIN_C2
.................... 
....................     // SPI Chip Select (BOSSヘッダ名称に適合)
....................     #define MIS_FM_CS           PIN_B1
....................     #define SMF_CS              PIN_D4
....................     #define PIN_CS_ADC          PIN_B3
.................... 
.................... // ------------------------------------------
....................     // UART 通信設定
....................     // ------------------------------------------
....................     #use rs232(baud=9600, parity=N, xmit=PIN_G0, bits=8, stream=PC, FORCE_SW, ERRORS)
.................... 
....................     // BOSS側: D1/D0ピンにハードウェアUART3を割り当てて使用する
....................     #pin_select TX3=PIN_D1
....................     #pin_select RX3=PIN_D0
....................     #use rs232(baud=9600, parity=N, UART3, bits=8, stream=BOSS, ERRORS)
.................... 
....................     // ------------------------------------------
....................     // SPI 通信設定
....................     // ------------------------------------------
....................     #use spi(MASTER, BAUD=1000000, MODE=0, BITS=8, DI=PIN_B5, DO=PIN_B4, CLK=PIN_B2, stream=MIS_FM_STREAM, FORCE_SW)
....................     #use spi(MASTER, BAUD=1000000, MODE=0, BITS=8, DI=PIN_D6, DO=PIN_D7, CLK=PIN_D5, stream=SMF_STREAM, FORCE_SW)
.................... 
.................... #endif
.................... 
.................... // ==========================================
.................... // 2. システムシーケンス コマンド定義
.................... // ==========================================
.................... #define CMD_MISSION_START       0x10
.................... #define RES_MISSION_DONE        0x11
.................... #define CMD_SMF_PREPARE         0x20
.................... #define REQ_SMF_COPY            0x21
.................... #define CMD_SMF_PERMIT          0x22
.................... #define REQ_POWER_OFF           0x30
.................... 
.................... // ==========================================
.................... // 3. データフォーマット・バッファ定義
.................... // ==========================================
.................... #define PACKET_SIZE             64
.................... #define FLASH_PAGE_SIZE         256
.................... #define PACKETS_PER_PAGE        4
.................... #define SMF_TRANSFER_PACKETS    15
.................... 
.................... // ヘッダー構造体 (8Byte)
.................... typedef struct
.................... {
....................     unsigned int32 timestamp;      // 4 Byte
....................     unsigned int8  mode : 3;       // 3 bit
....................     unsigned int8  channel : 1;    // 1 bit
....................     unsigned int8  samplingRate : 4; // 4 bit
....................     unsigned int16 dataCount;      // 12bitではなく16bit(2Byte)で確保しエラーを回避
....................     unsigned int8  zeroFill;       // 1 Byte (合計8Byteにするため)
.................... } PacketHeader;
.................... 
.................... typedef struct
.................... {
....................     PacketHeader header;           // 8 Byte
....................     unsigned int8 packetNum;       // 1 Byte
....................     unsigned int16 adcData[27];    // 54 Byte
....................     unsigned int8 crc8;            // 1 Byte
.................... } FirstPacket;
.................... 
.................... typedef struct
.................... {
....................     unsigned int8 packetNum;       // 1 Byte
....................     unsigned int16 adcData[31];    // 62 Byte
....................     unsigned int8 crc8;            // 1 Byte
.................... } SubsequentPacket;
.................... 
.................... typedef union
.................... {
....................     unsigned int8 raw[PACKET_SIZE];
....................     FirstPacket first;
....................     SubsequentPacket sub;
.................... } PacketBuffer;
.................... 
.................... #endif // son_tmp_CONFIG_H
.................... 
.................... 
.................... // ============================================================================
.................... // 外部公開関数プロトタイプ
.................... // ============================================================================
.................... 
.................... // SMFへの転送準備（アドレスとサイズの計算）
.................... void cigs_smf_prepare(void);
.................... 
.................... // MIS_FMからデータを読み出し、SMF(CPLD)へSPI送信
.................... void cigs_smf_copy(void);
.................... 
.................... // 転送完了を確認し、フラッシュのカウンタを更新
.................... void cigs_smf_permit(void);
.................... 
.................... #endif // son_tmp_SMF_H
.................... 
.................... #include "son_tmp_flash.h"
.................... #ifndef son_tmp_FLASH_H
.................... #define son_tmp_FLASH_H
.................... 
.................... #include <stdint.h>
.................... #include <string.h>
.................... #include "../../system/son_tmp_config.h"
.................... 
.................... // 共通ライブラリのヘッダ (MissionIDなどの定数用)
.................... // #include "../../../lib/communication/typedef_content.h"
.................... // #include "../../../lib/communication/value_status.h"
.................... 
.................... // ============================================================================
.................... // メモリマップ定義 (MT25QL128ABA: 16MB)
.................... // ============================================================================
.................... #define MISF_START 0x00000000
.................... #define MISF_END   0x00FFFFFF
.................... 
.................... #define SECTOR_64K_BYTE  0x10000
.................... 
.................... #define MISF_CIGS_DATA_TABLE_SIZE 64
.................... 
.................... #define MISF_CIGS_DATA_TABLE_START 0x00000000
.................... #define MISF_CIGS_DATA_TABLE_END   0x00000FFF
.................... #define MISF_CIGS_PICLOG_START     0x00010000
.................... #define MISF_CIGS_PICLOG_END       0x00140FFF
.................... #define MISF_CIGS_ENVIRO_START     0x00281000
.................... #define MISF_CIGS_ENVIRO_END       0x00320FFF
.................... #define MISF_CIGS_IV_HEADER_START  0x00721000
.................... #define MISF_CIGS_IV_HEADER_END    0x007C0FFF
.................... #define MISF_CIGS_IV_DATA_START    0x007C1000
.................... #define MISF_CIGS_IV_DATA_END      0x00D00000
.................... 
.................... // ============================================================================
.................... // データ構造体定義
.................... // ============================================================================
.................... 
.................... // フラッシュカウンタ構造体 (11 Bytes)
.................... typedef struct
.................... {
....................     uint8_t   mission_id;
....................     uint32_t  used_counter;
....................     uint32_t  uncopied_counter;
....................     uint8_t   reserve_counter1;
....................     uint8_t   reserve_counter2;
.................... } Flash_t;
.................... 
.................... // テーブル保存用の64Byteパケット構造体
.................... typedef union
.................... {
....................     struct
....................     {
....................         union
....................         {
....................             struct
....................             {
....................                 Flash_t piclog;
....................                 Flash_t environment;
....................                 Flash_t iv_header;
....................                 Flash_t iv_data;
....................             } logdata;
....................             uint8_t reserve[63];
....................         } payload;
....................         uint8_t crc; // 1バイトのCRC
....................     } packet;
....................     uint8_t bytes[64];
.................... } FlashData_t;
.................... 
.................... typedef struct
.................... {
....................     uint32_t start_address;
....................     uint32_t end_address;
.................... } MisfStatusStruct;
.................... 
.................... typedef struct
.................... {
....................     uint32_t start_address;
....................     uint32_t size;
.................... } MisfWriteStruct;
.................... 
.................... // ============================================================================
.................... // グローバル変数 (宣言のみ、実体は.cファイルに記述)
.................... // ============================================================================
.................... extern Flash_t piclog_data;
.................... extern Flash_t environment_data;
.................... extern Flash_t iv_header;
.................... extern Flash_t iv_data;
.................... 
.................... // ============================================================================
.................... // 外部公開関数プロトタイプ
.................... // ============================================================================
.................... void misf_init(void);
.................... FlashData_t make_flash_data_table(void);
.................... void write_misf_address_area(void);
.................... MisfStatusStruct get_misf_status_struct(uint8_t mission_id);
.................... MisfWriteStruct get_misf_write_struct(uint8_t mission_id);
.................... void print_flash_status(void);
.................... 
.................... #endif // son_tmp_FLASH_H
.................... 
.................... #include "../../../lib/device/mt25q.h"
.................... #ifndef MT25Q_H
.................... #define MT25Q_H
.................... 
.................... // =========
.................... //#define MT25Q_DEBUG
.................... // =========
.................... 
.................... 
.................... #define FLASH_STREAM0 MIS_FM_STREAM     // <- Align the names to `config.h` Stream name
.................... #define FLASH_STREAM1 SMF_STREAM
.................... #define FLASH_STREAM2 SMF_STREAM // dont use
.................... #define FLASH_STREAM3 SMF_STREAM // dont use
.................... 
.................... typedef enum spi_stream{
....................     SPI_0,
....................     SPI_1,
....................     SPI_2,
....................     SPI_3,
.................... }SpiStreamId;
.................... 
.................... #define MT25QL128ABA 0x00     //Mission Flash
.................... #define MT25QL01GBBB 0x01     //SMF,CF
.................... typedef struct select_stream_to_flash{
....................     SpiStreamId spi_stream_id;
....................     unsigned int8 flash_model;
....................     int16 cs_pin;
.................... }Flash;
.................... 
.................... 
.................... Flash mis_fm = {SPI_0, MT25QL128ABA, MIS_FM_CS};
.................... Flash smf = {SPI_1, MT25QL01GBBB, SMF_CS};
.................... 
.................... 
.................... 
.................... // ===================== Function List =====================
.................... // Public Functions
.................... 
.................... int1 is_connect(Flash flash_stream);
.................... 
.................... void write_data_bytes(Flash flash_stream, unsigned int32 write_start_address, int8 *write_data, unsigned int16 write_amount);      
.................... 
.................... void read_data_bytes(Flash flash_stream, unsigned int32 read_start_address, int8 *read_data, unsigned int32 read_amount);  
.................... 
.................... void sector_erase(Flash flash_stream, unsigned int32 sector_address);
.................... 
.................... void subsector_32kByte_erase(Flash flash_stream, unsigned int32 subsector_address);  
....................                                
.................... void subsector_4kByte_erase(Flash flash_stream, unsigned int32 subsector_address);      
.................... 
.................... //Private Functions
....................  
.................... void flash_setting(Flash flash_stream);
....................  
.................... int8 status_register(Flash flash_stream);
....................  
.................... int8 read_id(Flash flash_stream);
....................  
.................... int8 read_data_byte(Flash flash_stream, unsigned int32 read_address);                                               
....................  
.................... void write_data_byte(Flash flash_stream, unsigned int32 write_address,int8 write_data);                             
....................         //
.................... 
.................... 
.................... // ===================== Flash Commands =====================
.................... #define CMD_READ_ID                     0x9F
.................... #define CMD_READ_STATUS_REGISTER        0x05
.................... #define CMD_READ                        0x03//for MT25QL128ABA
.................... #define CMD_4BYTE_READ                  0x13//for MT25QL01GBBB
.................... #define CMD_WRITE_ENABLE                0x06
.................... #define CMD_PAGE_PROGRAM                0x02//for MT25QL128ABA
.................... #define CMD_4BYTE_PAGE_PROGRAM          0x12//for MT25QL01GBBB
.................... #define CMD_SUBSECTOR_4KB_ERASE         0x20//for MT25QL128ABA
.................... #define CMD_4BYTE_SUBSECTOR_4KB_ERASE   0x21//for MT25QL01GBBB
.................... #define CMD_SUBSECTOR_32KB_ERASE        0x52//for MT25QL128ABA
.................... #define CMD_4BYTE_SUBSECTOR_32KB_ERASE  0x5C//for MT25QL01GBBB
.................... #define CMD_SECTOR_ERASE                0xD8//for MT25QL128ABA
.................... #define CMD_4BYTE_SECTOR_ERASE          0xDC//for MT25QL01GBBB
.................... 
.................... // ====================== Value List =====================
.................... #define MANUFACTURER_ID_MICRON 0x20 // Manufacturer ID for Micron flash
.................... #define READ_ID_DATASIZE 20 // 20 bytes for read ID data
.................... 
.................... 
.................... // ====================== Data Structures =====================
.................... typedef union
.................... {
....................     unsigned int8 bytes[READ_ID_DATASIZE]; // 20 bytes for read ID
....................     struct {
....................         unsigned int8 manufacturer_id; // 1 byte
....................         unsigned int8 memory_type;     // 1 byte
....................         unsigned int8 capacity;        // 1 byte
....................         unsigned int8 reserved;       // 1 byte
....................     } fields;
.................... }READ_ID_DATA;
.................... 
.................... 
.................... #endif
.................... 
.................... 
.................... 
.................... 
.................... // ============================================================================
.................... // グローバル変数 (転送状態の保持)
.................... // ============================================================================
.................... static uint32_t current_transfer_address = 0;
.................... static uint32_t current_transfer_size = 0;
.................... 
.................... // ============================================================================
.................... // SMF（CPLD経由）転送の実処理
.................... // ============================================================================
.................... 
.................... void cigs_smf_prepare(void)
.................... {
....................     // 例として、IVデータ（温度データ含む）の未コピー分を転送対象とする
....................     if (iv_data.uncopied_counter > 0)
*
0336C:  MOVLB  1
0336E:  MOVF   x3B,F
03370:  BTFSC  FD8.2
03372:  BRA    337A
03374:  MOVLB  0
03376:  GOTO   33AC
0337A:  MOVLB  0
0337C:  MOVLB  1
0337E:  MOVF   x3C,F
03380:  BTFSC  FD8.2
03382:  BRA    338A
03384:  MOVLB  0
03386:  GOTO   33AC
0338A:  MOVLB  0
0338C:  MOVLB  1
0338E:  MOVF   x3D,F
03390:  BTFSC  FD8.2
03392:  BRA    339A
03394:  MOVLB  0
03396:  GOTO   33AC
0339A:  MOVLB  0
0339C:  MOVLB  1
0339E:  MOVF   x3E,F
033A0:  BTFSS  FD8.2
033A2:  BRA    33AA
033A4:  MOVLB  0
033A6:  GOTO   3508
033AA:  MOVLB  0
....................     {
....................         // コピー開始アドレスの計算 (使用済み量から未コピー量を引いた場所が先頭)
....................         current_transfer_address = MISF_CIGS_IV_DATA_START + iv_data.used_counter - iv_data.uncopied_counter;
033AC:  MOVLB  1
033AE:  MOVF   x37,W
033B0:  MOVWF  x6C
033B2:  MOVLW  10
033B4:  ADDWF  x38,W
033B6:  MOVWF  x6D
033B8:  MOVLW  7C
033BA:  ADDWFC x39,W
033BC:  MOVWF  x6E
033BE:  MOVLW  00
033C0:  ADDWFC x3A,W
033C2:  MOVWF  x6F
033C4:  MOVF   x3B,W
033C6:  SUBWF  x6C,W
033C8:  MOVWF  x48
033CA:  MOVF   x3C,W
033CC:  SUBWFB x6D,W
033CE:  MOVWF  x49
033D0:  MOVF   x3D,W
033D2:  SUBWFB x6E,W
033D4:  MOVWF  x4A
033D6:  MOVF   x3E,W
033D8:  SUBWFB x6F,W
033DA:  MOVWF  x4B
.................... 
....................         // 最大15パケット分（64Byte × 15 = 960Byte）を1回の転送サイズとする
....................         uint32_t max_transfer_bytes = PACKET_SIZE * SMF_TRANSFER_PACKETS;
033DC:  CLRF   x6B
033DE:  CLRF   x6A
033E0:  MOVLW  03
033E2:  MOVWF  x69
033E4:  MOVLW  C0
033E6:  MOVWF  x68
.................... 
....................         if (iv_data.uncopied_counter >= max_transfer_bytes)
033E8:  MOVF   x6B,W
033EA:  SUBWF  x3E,W
033EC:  BTFSC  FD8.0
033EE:  BRA    33F6
033F0:  MOVLB  0
033F2:  GOTO   3454
033F6:  MOVLB  0
033F8:  BTFSS  FD8.2
033FA:  GOTO   3440
033FE:  MOVLB  1
03400:  MOVF   x6A,W
03402:  SUBWF  x3D,W
03404:  BTFSC  FD8.0
03406:  BRA    340E
03408:  MOVLB  0
0340A:  GOTO   3454
0340E:  MOVLB  0
03410:  BTFSS  FD8.2
03412:  GOTO   3440
03416:  MOVLB  1
03418:  MOVF   x69,W
0341A:  SUBWF  x3C,W
0341C:  BTFSC  FD8.0
0341E:  BRA    3426
03420:  MOVLB  0
03422:  GOTO   3454
03426:  MOVLB  0
03428:  BTFSS  FD8.2
0342A:  GOTO   3440
0342E:  MOVLB  1
03430:  MOVF   x68,W
03432:  SUBWF  x3B,W
03434:  BTFSC  FD8.0
03436:  BRA    343E
03438:  MOVLB  0
0343A:  GOTO   3454
0343E:  MOVLB  0
....................         {
....................             current_transfer_size = max_transfer_bytes;
03440:  MOVFF  16B,14F
03444:  MOVFF  16A,14E
03448:  MOVFF  169,14D
0344C:  MOVFF  168,14C
....................         }
03450:  GOTO   3464
....................         else
....................         {
....................             // 残りが15パケット未満なら、ある分だけ転送する
....................             current_transfer_size = iv_data.uncopied_counter;
03454:  MOVFF  13E,14F
03458:  MOVFF  13D,14E
0345C:  MOVFF  13C,14D
03460:  MOVFF  13B,14C
....................         }
.................... 
....................         fprintf(PC, "\t[SMF] Prepare: Addr=0x%08lX, Size=%lu bytes\r\n", current_transfer_address, current_transfer_size);
03464:  MOVLW  AE
03466:  MOVWF  FF6
03468:  MOVLW  04
0346A:  MOVWF  FF7
0346C:  MOVLW  00
0346E:  MOVWF  FF8
03470:  MOVLW  17
03472:  MOVLB  2
03474:  MOVWF  x0C
03476:  MOVLB  0
03478:  CALL   0A72
0347C:  MOVFF  14B,185
03480:  MOVLW  37
03482:  MOVLB  1
03484:  MOVWF  x86
03486:  MOVLB  0
03488:  CALL   13BA
0348C:  MOVFF  14A,185
03490:  MOVLW  37
03492:  MOVLB  1
03494:  MOVWF  x86
03496:  MOVLB  0
03498:  CALL   13BA
0349C:  MOVFF  149,185
034A0:  MOVLW  37
034A2:  MOVLB  1
034A4:  MOVWF  x86
034A6:  MOVLB  0
034A8:  CALL   13BA
034AC:  MOVFF  148,185
034B0:  MOVLW  37
034B2:  MOVLB  1
034B4:  MOVWF  x86
034B6:  MOVLB  0
034B8:  CALL   13BA
034BC:  MOVLW  CA
034BE:  MOVWF  FF6
034C0:  MOVLW  04
034C2:  MOVWF  FF7
034C4:  MOVLW  00
034C6:  MOVWF  FF8
034C8:  MOVLW  07
034CA:  MOVLB  2
034CC:  MOVWF  x0C
034CE:  MOVLB  0
034D0:  CALL   0A72
034D4:  MOVLW  41
034D6:  MOVWF  FE9
034D8:  MOVFF  14F,16F
034DC:  MOVFF  14E,16E
034E0:  MOVFF  14D,16D
034E4:  MOVFF  14C,16C
034E8:  GOTO   326A
034EC:  MOVLW  D4
034EE:  MOVWF  FF6
034F0:  MOVLW  04
034F2:  MOVWF  FF7
034F4:  MOVLW  00
034F6:  MOVWF  FF8
034F8:  MOVLW  08
034FA:  MOVLB  2
034FC:  MOVWF  x0C
034FE:  MOVLB  0
03500:  CALL   0A72
....................     }
03504:  GOTO   3524
....................     else
....................     {
....................         current_transfer_size = 0;
03508:  MOVLB  1
0350A:  CLRF   x4F
0350C:  CLRF   x4E
0350E:  CLRF   x4D
03510:  CLRF   x4C
....................         fprintf(PC, "\t[SMF] Prepare: No data to copy.\r\n");
03512:  MOVLW  DE
03514:  MOVWF  FF6
03516:  MOVLW  04
03518:  MOVWF  FF7
0351A:  MOVLW  00
0351C:  MOVWF  FF8
0351E:  MOVLB  0
03520:  CALL   0A42
....................     }
03524:  GOTO   354A (RETURN)
.................... }
.................... 
.................... void cigs_smf_copy(void)
.................... {
....................     if (current_transfer_size == 0) return;
*
0354E:  MOVLB  1
03550:  MOVF   x4C,F
03552:  BTFSC  FD8.2
03554:  BRA    355C
03556:  MOVLB  0
03558:  GOTO   3592
0355C:  MOVLB  0
0355E:  MOVLB  1
03560:  MOVF   x4D,F
03562:  BTFSC  FD8.2
03564:  BRA    356C
03566:  MOVLB  0
03568:  GOTO   3592
0356C:  MOVLB  0
0356E:  MOVLB  1
03570:  MOVF   x4E,F
03572:  BTFSC  FD8.2
03574:  BRA    357C
03576:  MOVLB  0
03578:  GOTO   3592
0357C:  MOVLB  0
0357E:  MOVLB  1
03580:  MOVF   x4F,F
03582:  BTFSC  FD8.2
03584:  BRA    358C
03586:  MOVLB  0
03588:  GOTO   3592
0358C:  MOVLB  0
0358E:  GOTO   372A
.................... 
....................     uint8_t buffer[PACKET_SIZE];
....................     uint32_t remaining = current_transfer_size;
....................     uint32_t addr = current_transfer_address;
03592:  MOVFF  14F,1AB
03596:  MOVFF  14E,1AA
0359A:  MOVFF  14D,1A9
0359E:  MOVFF  14C,1A8
035A2:  MOVFF  14B,1AF
035A6:  MOVFF  14A,1AE
035AA:  MOVFF  149,1AD
035AE:  MOVFF  148,1AC
.................... 
....................     fprintf(PC, "\t[SMF] Copying data to CPLD...\r\n");
035B2:  MOVLW  02
035B4:  MOVWF  FF6
035B6:  MOVLW  05
035B8:  MOVWF  FF7
035BA:  MOVLW  00
035BC:  MOVWF  FF8
035BE:  CALL   0A42
.................... 
....................     // CPLDのチップセレクトをLowにしてSPI通信開始
....................     output_low(SMF_CS);
035C2:  BCF    F95.4
035C4:  BCF    F8C.4
.................... 
....................     // パケット単位で読み出してCPLDへ転送する
....................     while (remaining > 0)
035C6:  MOVLB  1
035C8:  MOVF   xA8,F
035CA:  BTFSC  FD8.2
035CC:  BRA    35D4
035CE:  MOVLB  0
035D0:  GOTO   3606
035D4:  MOVLB  0
035D6:  MOVLB  1
035D8:  MOVF   xA9,F
035DA:  BTFSC  FD8.2
035DC:  BRA    35E4
035DE:  MOVLB  0
035E0:  GOTO   3606
035E4:  MOVLB  0
035E6:  MOVLB  1
035E8:  MOVF   xAA,F
035EA:  BTFSC  FD8.2
035EC:  BRA    35F4
035EE:  MOVLB  0
035F0:  GOTO   3606
035F4:  MOVLB  0
035F6:  MOVLB  1
035F8:  MOVF   xAB,F
035FA:  BTFSS  FD8.2
035FC:  BRA    3604
035FE:  MOVLB  0
03600:  GOTO   3716
03604:  MOVLB  0
....................     {
....................         uint8_t size = (remaining >= PACKET_SIZE) ? PACKET_SIZE : remaining;
03606:  MOVLB  1
03608:  MOVF   xAB,F
0360A:  BTFSC  FD8.2
0360C:  BRA    3614
0360E:  MOVLB  0
03610:  GOTO   3648
03614:  MOVLB  0
03616:  MOVLB  1
03618:  MOVF   xAA,F
0361A:  BTFSC  FD8.2
0361C:  BRA    3624
0361E:  MOVLB  0
03620:  GOTO   3648
03624:  MOVLB  0
03626:  MOVLB  1
03628:  MOVF   xA9,F
0362A:  BTFSC  FD8.2
0362C:  BRA    3634
0362E:  MOVLB  0
03630:  GOTO   3648
03634:  MOVLB  0
03636:  MOVLB  1
03638:  MOVF   xA8,W
0363A:  SUBLW  3F
0363C:  BTFSS  FD8.0
0363E:  BRA    3646
03640:  MOVLB  0
03642:  GOTO   364E
03646:  MOVLB  0
03648:  MOVLW  40
0364A:  GOTO   3654
0364E:  MOVLB  1
03650:  MOVF   xA8,W
03652:  MOVLB  0
03654:  MOVLB  1
03656:  MOVWF  xB0
03658:  MOVLB  0
.................... 
....................         // 1. MIS_FM(ミッションフラッシュ)からデータを読み出し
....................         read_data_bytes(mis_fm, addr, (int8*)buffer, size);
0365A:  MOVLW  01
0365C:  MOVLB  1
0365E:  MOVWF  xB3
03660:  MOVLW  68
03662:  MOVWF  xB2
03664:  MOVFF  108,1B7
03668:  MOVFF  107,1B6
0366C:  MOVFF  106,1B5
03670:  MOVFF  105,1B4
03674:  MOVFF  1AF,1BB
03678:  MOVFF  1AE,1BA
0367C:  MOVFF  1AD,1B9
03680:  MOVFF  1AC,1B8
03684:  MOVFF  1B3,1BD
03688:  MOVFF  1B2,1BC
0368C:  CLRF   xC1
0368E:  CLRF   xC0
03690:  CLRF   xBF
03692:  MOVFF  1B0,1BE
03696:  MOVLB  0
03698:  CALL   0FE0
.................... 
....................         // 2. SPI2(SMF_STREAM)経由でCPLDへ送信
....................         for (uint8_t i = 0; i < size; i++)
0369C:  MOVLB  1
0369E:  CLRF   xB1
036A0:  MOVLB  0
036A2:  MOVLB  1
036A4:  MOVF   xB0,W
036A6:  SUBWF  xB1,W
036A8:  BTFSS  FD8.0
036AA:  BRA    36B2
036AC:  MOVLB  0
036AE:  GOTO   36E6
036B2:  MOVLB  0
....................         {
....................             spi_xfer(SMF_STREAM, buffer[i]);
036B4:  CLRF   03
036B6:  MOVLB  1
036B8:  MOVF   xB1,W
036BA:  ADDLW  68
036BC:  MOVWF  FE9
036BE:  MOVLW  01
036C0:  ADDWFC 03,W
036C2:  MOVWF  FEA
036C4:  MOVFF  FEF,1B2
036C8:  MOVFF  1B2,246
036CC:  MOVLW  08
036CE:  MOVLB  2
036D0:  MOVWF  x47
036D2:  MOVLW  01
036D4:  MOVWF  x48
036D6:  MOVLB  0
036D8:  CALL   0C60
036DC:  MOVLB  1
036DE:  INCF   xB1,F
036E0:  MOVLB  0
036E2:  GOTO   36A2
....................         }
.................... 
....................         addr += size;
036E6:  MOVLB  1
036E8:  MOVF   xB0,W
036EA:  ADDWF  xAC,F
036EC:  MOVLW  00
036EE:  ADDWFC xAD,F
036F0:  MOVLW  00
036F2:  ADDWFC xAE,F
036F4:  MOVLW  00
036F6:  ADDWFC xAF,F
....................         remaining -= size;
036F8:  MOVF   xB0,W
036FA:  SUBWF  xA8,F
036FC:  MOVLW  00
036FE:  SUBWFB xA9,F
03700:  MOVLW  00
03702:  SUBWFB xAA,F
03704:  MOVLW  00
03706:  SUBWFB xAB,F
.................... 
....................         // パケット転送間のウェイト（CPLD側の処理落ちを防ぐため適宜調整）
....................         delay_us(100);
03708:  MOVLW  85
0370A:  MOVWF  00
0370C:  MOVLB  0
0370E:  DECFSZ 00,F
03710:  BRA    370E
03712:  GOTO   35C6
....................     }
.................... 
....................     // CPLDのチップセレクトをHighにしてSPI通信終了
....................     output_high(SMF_CS);
03716:  BCF    F95.4
03718:  BSF    F8C.4
.................... 
....................     fprintf(PC, "\t[SMF] Copy Complete.\r\n");
0371A:  MOVLW  24
0371C:  MOVWF  FF6
0371E:  MOVLW  05
03720:  MOVWF  FF7
03722:  MOVLW  00
03724:  MOVWF  FF8
03726:  CALL   0A42
0372A:  GOTO   3750 (RETURN)
.................... }
.................... 
.................... void cigs_smf_permit(void)
.................... {
....................     if (current_transfer_size > 0)
*
03754:  MOVLB  1
03756:  MOVF   x4C,F
03758:  BTFSC  FD8.2
0375A:  BRA    3762
0375C:  MOVLB  0
0375E:  GOTO   3794
03762:  MOVLB  0
03764:  MOVLB  1
03766:  MOVF   x4D,F
03768:  BTFSC  FD8.2
0376A:  BRA    3772
0376C:  MOVLB  0
0376E:  GOTO   3794
03772:  MOVLB  0
03774:  MOVLB  1
03776:  MOVF   x4E,F
03778:  BTFSC  FD8.2
0377A:  BRA    3782
0377C:  MOVLB  0
0377E:  GOTO   3794
03782:  MOVLB  0
03784:  MOVLB  1
03786:  MOVF   x4F,F
03788:  BTFSS  FD8.2
0378A:  BRA    3792
0378C:  MOVLB  0
0378E:  GOTO   37C4
03792:  MOVLB  0
....................     {
....................         // 転送が成功したので、未コピーカウンタを減算する
....................         iv_data.uncopied_counter -= current_transfer_size;
03794:  MOVLB  1
03796:  MOVF   x4C,W
03798:  SUBWF  x3B,F
0379A:  MOVF   x4D,W
0379C:  SUBWFB x3C,F
0379E:  MOVF   x4E,W
037A0:  SUBWFB x3D,F
037A2:  MOVF   x4F,W
037A4:  SUBWFB x3E,F
....................         current_transfer_size = 0;
037A6:  CLRF   x4F
037A8:  CLRF   x4E
037AA:  CLRF   x4D
037AC:  CLRF   x4C
.................... 
....................         // 更新されたカウンタ情報をFlashのアドレス管理領域に保存する
....................         write_misf_address_area();
037AE:  MOVLB  0
037B0:  CALL   1F30
.................... 
....................         fprintf(PC, "\t[SMF] Permit: Counters updated and saved.\r\n");
037B4:  MOVLW  3C
037B6:  MOVWF  FF6
037B8:  MOVLW  05
037BA:  MOVWF  FF7
037BC:  MOVLW  00
037BE:  MOVWF  FF8
037C0:  CALL   0A42
....................     }
037C4:  GOTO   37EA (RETURN)
.................... }
.................... 
.................... #include "../core/storage/son_tmp_flash.c"
.................... #include "son_tmp_flash.h"
.................... #ifndef son_tmp_FLASH_H
.................... #define son_tmp_FLASH_H
.................... 
.................... #include <stdint.h>
.................... #include <string.h>
.................... #include "../../system/son_tmp_config.h"
.................... 
.................... // 共通ライブラリのヘッダ (MissionIDなどの定数用)
.................... // #include "../../../lib/communication/typedef_content.h"
.................... // #include "../../../lib/communication/value_status.h"
.................... 
.................... // ============================================================================
.................... // メモリマップ定義 (MT25QL128ABA: 16MB)
.................... // ============================================================================
.................... #define MISF_START 0x00000000
.................... #define MISF_END   0x00FFFFFF
.................... 
.................... #define SECTOR_64K_BYTE  0x10000
.................... 
.................... #define MISF_CIGS_DATA_TABLE_SIZE 64
.................... 
.................... #define MISF_CIGS_DATA_TABLE_START 0x00000000
.................... #define MISF_CIGS_DATA_TABLE_END   0x00000FFF
.................... #define MISF_CIGS_PICLOG_START     0x00010000
.................... #define MISF_CIGS_PICLOG_END       0x00140FFF
.................... #define MISF_CIGS_ENVIRO_START     0x00281000
.................... #define MISF_CIGS_ENVIRO_END       0x00320FFF
.................... #define MISF_CIGS_IV_HEADER_START  0x00721000
.................... #define MISF_CIGS_IV_HEADER_END    0x007C0FFF
.................... #define MISF_CIGS_IV_DATA_START    0x007C1000
.................... #define MISF_CIGS_IV_DATA_END      0x00D00000
.................... 
.................... // ============================================================================
.................... // データ構造体定義
.................... // ============================================================================
.................... 
.................... // フラッシュカウンタ構造体 (11 Bytes)
.................... typedef struct
.................... {
....................     uint8_t   mission_id;
....................     uint32_t  used_counter;
....................     uint32_t  uncopied_counter;
....................     uint8_t   reserve_counter1;
....................     uint8_t   reserve_counter2;
.................... } Flash_t;
.................... 
.................... // テーブル保存用の64Byteパケット構造体
.................... typedef union
.................... {
....................     struct
....................     {
....................         union
....................         {
....................             struct
....................             {
....................                 Flash_t piclog;
....................                 Flash_t environment;
....................                 Flash_t iv_header;
....................                 Flash_t iv_data;
....................             } logdata;
....................             uint8_t reserve[63];
....................         } payload;
....................         uint8_t crc; // 1バイトのCRC
....................     } packet;
....................     uint8_t bytes[64];
.................... } FlashData_t;
.................... 
.................... typedef struct
.................... {
....................     uint32_t start_address;
....................     uint32_t end_address;
.................... } MisfStatusStruct;
.................... 
.................... typedef struct
.................... {
....................     uint32_t start_address;
....................     uint32_t size;
.................... } MisfWriteStruct;
.................... 
.................... // ============================================================================
.................... // グローバル変数 (宣言のみ、実体は.cファイルに記述)
.................... // ============================================================================
.................... extern Flash_t piclog_data;
.................... extern Flash_t environment_data;
.................... extern Flash_t iv_header;
.................... extern Flash_t iv_data;
.................... 
.................... // ============================================================================
.................... // 外部公開関数プロトタイプ
.................... // ============================================================================
.................... void misf_init(void);
.................... FlashData_t make_flash_data_table(void);
.................... void write_misf_address_area(void);
.................... MisfStatusStruct get_misf_status_struct(uint8_t mission_id);
.................... MisfWriteStruct get_misf_write_struct(uint8_t mission_id);
.................... void print_flash_status(void);
.................... 
.................... #endif // son_tmp_FLASH_H
.................... 
.................... #include "../../../lib/device/mt25q.h"
.................... #ifndef MT25Q_H
.................... #define MT25Q_H
.................... 
.................... // =========
.................... //#define MT25Q_DEBUG
.................... // =========
.................... 
.................... 
.................... #define FLASH_STREAM0 MIS_FM_STREAM     // <- Align the names to `config.h` Stream name
.................... #define FLASH_STREAM1 SMF_STREAM
.................... #define FLASH_STREAM2 SMF_STREAM // dont use
.................... #define FLASH_STREAM3 SMF_STREAM // dont use
.................... 
.................... typedef enum spi_stream{
....................     SPI_0,
....................     SPI_1,
....................     SPI_2,
....................     SPI_3,
.................... }SpiStreamId;
.................... 
.................... #define MT25QL128ABA 0x00     //Mission Flash
.................... #define MT25QL01GBBB 0x01     //SMF,CF
.................... typedef struct select_stream_to_flash{
....................     SpiStreamId spi_stream_id;
....................     unsigned int8 flash_model;
....................     int16 cs_pin;
.................... }Flash;
.................... 
.................... 
.................... Flash mis_fm = {SPI_0, MT25QL128ABA, MIS_FM_CS};
.................... Flash smf = {SPI_1, MT25QL01GBBB, SMF_CS};
.................... 
.................... 
.................... 
.................... // ===================== Function List =====================
.................... // Public Functions
.................... 
.................... int1 is_connect(Flash flash_stream);
.................... 
.................... void write_data_bytes(Flash flash_stream, unsigned int32 write_start_address, int8 *write_data, unsigned int16 write_amount);      
.................... 
.................... void read_data_bytes(Flash flash_stream, unsigned int32 read_start_address, int8 *read_data, unsigned int32 read_amount);  
.................... 
.................... void sector_erase(Flash flash_stream, unsigned int32 sector_address);
.................... 
.................... void subsector_32kByte_erase(Flash flash_stream, unsigned int32 subsector_address);  
....................                                
.................... void subsector_4kByte_erase(Flash flash_stream, unsigned int32 subsector_address);      
.................... 
.................... //Private Functions
....................  
.................... void flash_setting(Flash flash_stream);
....................  
.................... int8 status_register(Flash flash_stream);
....................  
.................... int8 read_id(Flash flash_stream);
....................  
.................... int8 read_data_byte(Flash flash_stream, unsigned int32 read_address);                                               
....................  
.................... void write_data_byte(Flash flash_stream, unsigned int32 write_address,int8 write_data);                             
....................         //
.................... 
.................... 
.................... // ===================== Flash Commands =====================
.................... #define CMD_READ_ID                     0x9F
.................... #define CMD_READ_STATUS_REGISTER        0x05
.................... #define CMD_READ                        0x03//for MT25QL128ABA
.................... #define CMD_4BYTE_READ                  0x13//for MT25QL01GBBB
.................... #define CMD_WRITE_ENABLE                0x06
.................... #define CMD_PAGE_PROGRAM                0x02//for MT25QL128ABA
.................... #define CMD_4BYTE_PAGE_PROGRAM          0x12//for MT25QL01GBBB
.................... #define CMD_SUBSECTOR_4KB_ERASE         0x20//for MT25QL128ABA
.................... #define CMD_4BYTE_SUBSECTOR_4KB_ERASE   0x21//for MT25QL01GBBB
.................... #define CMD_SUBSECTOR_32KB_ERASE        0x52//for MT25QL128ABA
.................... #define CMD_4BYTE_SUBSECTOR_32KB_ERASE  0x5C//for MT25QL01GBBB
.................... #define CMD_SECTOR_ERASE                0xD8//for MT25QL128ABA
.................... #define CMD_4BYTE_SECTOR_ERASE          0xDC//for MT25QL01GBBB
.................... 
.................... // ====================== Value List =====================
.................... #define MANUFACTURER_ID_MICRON 0x20 // Manufacturer ID for Micron flash
.................... #define READ_ID_DATASIZE 20 // 20 bytes for read ID data
.................... 
.................... 
.................... // ====================== Data Structures =====================
.................... typedef union
.................... {
....................     unsigned int8 bytes[READ_ID_DATASIZE]; // 20 bytes for read ID
....................     struct {
....................         unsigned int8 manufacturer_id; // 1 byte
....................         unsigned int8 memory_type;     // 1 byte
....................         unsigned int8 capacity;        // 1 byte
....................         unsigned int8 reserved;       // 1 byte
....................     } fields;
.................... }READ_ID_DATA;
.................... 
.................... 
.................... #endif
.................... 
.................... 
.................... 
.................... #include "../../../lib/tool/calc_tools.h"
.................... #ifndef CALC_TOOLS_H
.................... #define CALC_TOOLS_H
....................  
.................... unsigned int8 calc_crc8(unsigned int8 *frame, unsigned int8 payload_size);
.................... int1 is_crc_valid(unsigned int8 *frame, int8 payload_size);
.................... void int32_to_be_array(int32 value, int8 *buf, int8 index);
.................... int32 lsb_array_to_int32(int8 *buf, int8 index);
.................... unsigned int32 lsb_to_msb(unsigned int32 value);
.................... unsigned int32 msb_to_lsb(unsigned int32 value);
.................... 
.................... 
.................... #endif // CALC_TOOLS_H  
.................... 
.................... // #include "../../../lib/communication/typedef_content.h"
.................... 
.................... extern void subsector_4kByte_erase(Flash flash_stream, unsigned int32 erase_address);
.................... 
.................... // ============================================================================
.................... // グローバル変数の実体定義
.................... // ※各 mission_id 定数 (0x01等) はシステムの定義に合わせて調整してください
.................... // ============================================================================
.................... Flash_t piclog_data = {0x01, 0, 0, 0, 0};
.................... Flash_t environment_data = {0x02, 0, 0, 0, 0};
.................... Flash_t iv_header = {0x03, 0, 0, 0, 0};
.................... Flash_t iv_data = {0x04, 0, 0, 0, 0};
.................... 
.................... void misf_init()
.................... {
....................     fprintf(PC, "MISSION FLASH Initialize\r\n");
*
011F8:  MOVLW  6A
011FA:  MOVWF  FF6
011FC:  MOVLW  05
011FE:  MOVWF  FF7
01200:  MOVLW  00
01202:  MOVWF  FF8
01204:  CALL   0A42
.................... 
....................     // CSピンの初期化（Highで非選択）
....................     output_high(MIS_FM_CS);
01208:  BCF    F93.1
0120A:  BSF    F8A.1
....................     output_high(SMF_CS);
0120C:  BCF    F95.4
0120E:  BSF    F8C.4
....................     delay_ms(100);
01210:  MOVLW  64
01212:  MOVLB  2
01214:  MOVWF  x24
01216:  MOVLB  0
01218:  CALL   09C2
.................... 
....................     // デバイスの接続確認
....................     if (is_connect(mis_fm))
0121C:  MOVFF  108,1A7
01220:  MOVFF  107,1A6
01224:  MOVFF  106,1A5
01228:  MOVFF  105,1A4
0122C:  CALL   0EF4
01230:  MOVF   01,F
01232:  BTFSC  FD8.2
01234:  GOTO   124C
....................     {
....................         fprintf(PC, "\t[MIS FM] Connected\r\n");
01238:  MOVLW  86
0123A:  MOVWF  FF6
0123C:  MOVLW  05
0123E:  MOVWF  FF7
01240:  MOVLW  00
01242:  MOVWF  FF8
01244:  CALL   0A42
....................     }
01248:  GOTO   125C
....................     else
....................     {
....................         fprintf(PC, "\t[MIS FM] Not Connected\r\n");
0124C:  MOVLW  9C
0124E:  MOVWF  FF6
01250:  MOVLW  05
01252:  MOVWF  FF7
01254:  MOVLW  00
01256:  MOVWF  FF8
01258:  CALL   0A42
....................     }
.................... 
....................     if (is_connect(smf))
0125C:  MOVFF  10C,1A7
01260:  MOVFF  10B,1A6
01264:  MOVFF  10A,1A5
01268:  MOVFF  109,1A4
0126C:  CALL   0EF4
01270:  MOVF   01,F
01272:  BTFSC  FD8.2
01274:  GOTO   128C
....................     {
....................         fprintf(PC, "\t[SMF] Connected\r\n");
01278:  MOVLW  B6
0127A:  MOVWF  FF6
0127C:  MOVLW  05
0127E:  MOVWF  FF7
01280:  MOVLW  00
01282:  MOVWF  FF8
01284:  CALL   0A42
....................     }
01288:  GOTO   129C
....................     else
....................     {
....................         fprintf(PC, "\t[SMF] Not Connected\r\n");
0128C:  MOVLW  CA
0128E:  MOVWF  FF6
01290:  MOVLW  05
01292:  MOVWF  FF7
01294:  MOVLW  00
01296:  MOVWF  FF8
01298:  CALL   0A42
....................     }
.................... 
....................     // --- カウンタテーブルの復元 ---
....................     FlashData_t flash_data;
....................     memset(flash_data.bytes, 0, PACKET_SIZE);
0129C:  MOVLW  01
0129E:  MOVWF  FEA
012A0:  MOVLW  64
012A2:  MOVWF  FE9
012A4:  CLRF   00
012A6:  CLRF   02
012A8:  MOVLW  40
012AA:  MOVWF  01
012AC:  CALL   0FBC
.................... 
....................     // アドレス 0x00000000 から 64Byte を読み出す
....................     read_data_bytes(mis_fm, MISF_CIGS_DATA_TABLE_START, flash_data.bytes, PACKET_SIZE);
012B0:  MOVFF  108,1B7
012B4:  MOVFF  107,1B6
012B8:  MOVFF  106,1B5
012BC:  MOVFF  105,1B4
012C0:  MOVLB  1
012C2:  CLRF   xBB
012C4:  CLRF   xBA
012C6:  CLRF   xB9
012C8:  CLRF   xB8
012CA:  MOVLW  01
012CC:  MOVWF  xBD
012CE:  MOVLW  64
012D0:  MOVWF  xBC
012D2:  CLRF   xC1
012D4:  CLRF   xC0
012D6:  CLRF   xBF
012D8:  MOVLW  40
012DA:  MOVWF  xBE
012DC:  MOVLB  0
012DE:  CALL   0FE0
.................... 
....................     // 読み込んだデータが未フォーマット(0xFF)でないかを簡易チェック
....................     if (flash_data.packet.payload.logdata.piclog.mission_id != 0xFF)
012E2:  MOVLB  1
012E4:  INCFSZ x64,W
012E6:  BRA    12EC
012E8:  BRA    12F2
012EA:  MOVLB  0
012EC:  MOVLB  0
012EE:  GOTO   12F8
012F2:  MOVLB  0
012F4:  GOTO   1384
....................     {
....................         piclog_data = flash_data.packet.payload.logdata.piclog;
012F8:  MOVLW  01
012FA:  MOVWF  FEA
012FC:  MOVLW  15
012FE:  MOVWF  FE9
01300:  MOVLW  01
01302:  MOVWF  FE2
01304:  MOVLW  64
01306:  MOVWF  FE1
01308:  MOVLW  0B
0130A:  MOVWF  01
0130C:  MOVFF  FE6,FEE
01310:  DECFSZ 01,F
01312:  GOTO   130C
....................         environment_data = flash_data.packet.payload.logdata.environment;
01316:  MOVLW  01
01318:  MOVWF  FEA
0131A:  MOVLW  20
0131C:  MOVWF  FE9
0131E:  MOVLW  01
01320:  MOVWF  FE2
01322:  MOVLW  6F
01324:  MOVWF  FE1
01326:  MOVLW  0B
01328:  MOVWF  01
0132A:  MOVFF  FE6,FEE
0132E:  DECFSZ 01,F
01330:  GOTO   132A
....................         iv_header = flash_data.packet.payload.logdata.iv_header;
01334:  MOVLW  01
01336:  MOVWF  FEA
01338:  MOVLW  2B
0133A:  MOVWF  FE9
0133C:  MOVLW  01
0133E:  MOVWF  FE2
01340:  MOVLW  7A
01342:  MOVWF  FE1
01344:  MOVLW  0B
01346:  MOVWF  01
01348:  MOVFF  FE6,FEE
0134C:  DECFSZ 01,F
0134E:  GOTO   1348
....................         iv_data = flash_data.packet.payload.logdata.iv_data;
01352:  MOVLW  01
01354:  MOVWF  FEA
01356:  MOVLW  36
01358:  MOVWF  FE9
0135A:  MOVLW  01
0135C:  MOVWF  FE2
0135E:  MOVLW  85
01360:  MOVWF  FE1
01362:  MOVLW  0B
01364:  MOVWF  01
01366:  MOVFF  FE6,FEE
0136A:  DECFSZ 01,F
0136C:  GOTO   1366
....................         fprintf(PC, "\tData table loaded from Flash.\r\n");
01370:  MOVLW  E2
01372:  MOVWF  FF6
01374:  MOVLW  05
01376:  MOVWF  FF7
01378:  MOVLW  00
0137A:  MOVWF  FF8
0137C:  CALL   0A42
....................     }
01380:  GOTO   1394
....................     else
....................     {
....................         // 真っ白な場合はゼロリセットを維持する
....................         fprintf(PC, "\tData table is empty. Initialized to zero.\r\n");
01384:  MOVLW  04
01386:  MOVWF  FF6
01388:  MOVLW  06
0138A:  MOVWF  FF7
0138C:  MOVLW  00
0138E:  MOVWF  FF8
01390:  CALL   0A42
....................     }
.................... 
....................     fprintf(PC, "\tComplete\r\n");
01394:  MOVLW  32
01396:  MOVWF  FF6
01398:  MOVLW  06
0139A:  MOVWF  FF7
0139C:  MOVLW  00
0139E:  MOVWF  FF8
013A0:  CALL   0A42
013A4:  GOTO   3CC6 (RETURN)
.................... }
.................... 
.................... FlashData_t make_flash_data_table()
.................... {
....................     FlashData_t flash_data;
....................     memset(flash_data.bytes, 0, PACKET_SIZE);
*
01B26:  MOVLW  02
01B28:  MOVWF  FEA
01B2A:  MOVLW  02
01B2C:  MOVWF  FE9
01B2E:  CLRF   00
01B30:  CLRF   02
01B32:  MOVLW  40
01B34:  MOVWF  01
01B36:  CALL   0FBC
.................... 
....................     flash_data.packet.payload.logdata.piclog = piclog_data;
01B3A:  MOVLW  02
01B3C:  MOVWF  FEA
01B3E:  MOVLW  02
01B40:  MOVWF  FE9
01B42:  MOVLW  01
01B44:  MOVWF  FE2
01B46:  MOVLW  15
01B48:  MOVWF  FE1
01B4A:  MOVLW  0B
01B4C:  MOVWF  01
01B4E:  MOVFF  FE6,FEE
01B52:  DECFSZ 01,F
01B54:  GOTO   1B4E
....................     flash_data.packet.payload.logdata.environment = environment_data;
01B58:  MOVLW  02
01B5A:  MOVWF  FEA
01B5C:  MOVLW  0D
01B5E:  MOVWF  FE9
01B60:  MOVLW  01
01B62:  MOVWF  FE2
01B64:  MOVLW  20
01B66:  MOVWF  FE1
01B68:  MOVLW  0B
01B6A:  MOVWF  01
01B6C:  MOVFF  FE6,FEE
01B70:  DECFSZ 01,F
01B72:  GOTO   1B6C
....................     flash_data.packet.payload.logdata.iv_header = iv_header;
01B76:  MOVLW  02
01B78:  MOVWF  FEA
01B7A:  MOVLW  18
01B7C:  MOVWF  FE9
01B7E:  MOVLW  01
01B80:  MOVWF  FE2
01B82:  MOVLW  2B
01B84:  MOVWF  FE1
01B86:  MOVLW  0B
01B88:  MOVWF  01
01B8A:  MOVFF  FE6,FEE
01B8E:  DECFSZ 01,F
01B90:  GOTO   1B8A
....................     flash_data.packet.payload.logdata.iv_data = iv_data;
01B94:  MOVLW  02
01B96:  MOVWF  FEA
01B98:  MOVLW  23
01B9A:  MOVWF  FE9
01B9C:  MOVLW  01
01B9E:  MOVWF  FE2
01BA0:  MOVLW  36
01BA2:  MOVWF  FE1
01BA4:  MOVLW  0B
01BA6:  MOVWF  01
01BA8:  MOVFF  FE6,FEE
01BAC:  DECFSZ 01,F
01BAE:  GOTO   1BA8
.................... 
....................     flash_data.packet.crc = calc_crc8(flash_data.packet.payload.reserve, PACKET_SIZE - 1);
01BB2:  MOVLW  02
01BB4:  MOVLB  2
01BB6:  MOVWF  x43
01BB8:  MOVLW  02
01BBA:  MOVWF  x42
01BBC:  MOVLW  3F
01BBE:  MOVWF  x44
01BC0:  MOVLB  0
01BC2:  CALL   1ABA
01BC6:  MOVFF  01,241
.................... 
....................     return flash_data;
01BCA:  MOVLW  02
01BCC:  MOVWF  01
01BCE:  MOVLW  02
01BD0:  MOVWF  02
01BD2:  GOTO   1F34 (RETURN)
.................... }
.................... 
.................... void write_misf_address_area()
*
01F30:  GOTO   1B26
01F34:  MOVFF  02,03
01F38:  MOVF   01,W
01F3A:  MOVWF  FE1
01F3C:  MOVFF  03,FE2
01F40:  MOVLW  01
01F42:  MOVWF  FEA
01F44:  MOVLW  BC
01F46:  MOVWF  FE9
01F48:  MOVLW  40
01F4A:  MOVWF  01
01F4C:  MOVFF  FE6,FEE
01F50:  DECFSZ 01,F
01F52:  GOTO   1F4C
.................... {
....................     FlashData_t flash_data = make_flash_data_table();
.................... 
....................     // 最初のサブセクタ(4KB)を消去してからテーブルを書き込む
....................     subsector_4kByte_erase(mis_fm, MISF_CIGS_DATA_TABLE_START);
01F56:  MOVFF  108,1FF
01F5A:  MOVFF  107,1FE
01F5E:  MOVFF  106,1FD
01F62:  MOVFF  105,1FC
01F66:  MOVLB  2
01F68:  CLRF   x03
01F6A:  CLRF   x02
01F6C:  CLRF   x01
01F6E:  CLRF   x00
01F70:  MOVLB  0
01F72:  GOTO   1BD6
....................     write_data_bytes(mis_fm, MISF_CIGS_DATA_TABLE_START, flash_data.bytes, PACKET_SIZE);
01F76:  MOVFF  108,20F
01F7A:  MOVFF  107,20E
01F7E:  MOVFF  106,20D
01F82:  MOVFF  105,20C
01F86:  MOVLB  2
01F88:  CLRF   x13
01F8A:  CLRF   x12
01F8C:  CLRF   x11
01F8E:  CLRF   x10
01F90:  MOVLW  01
01F92:  MOVWF  x15
01F94:  MOVLW  BC
01F96:  MOVWF  x14
01F98:  CLRF   x17
01F9A:  MOVLW  40
01F9C:  MOVWF  x16
01F9E:  MOVLB  0
01FA0:  CALL   1736
.................... 
....................     #ifdef MT25Q_DEBUG
01FA4:  RETURN 0
....................     fprintf(PC, "Address Area Updated\r\n");
....................     #endif
.................... }
.................... 
.................... MisfStatusStruct get_misf_status_struct(uint8_t mission_id)
.................... {
....................     MisfStatusStruct mis_struct = {0, 0};
.................... 
....................     // ※定数 (CIGS_PICLOG_DATA 等) は外部共通ヘッダに依存
....................     if (mission_id == CIGS_PICLOG_DATA)
....................     {
....................         mis_struct.start_address = MISF_CIGS_PICLOG_START;
....................         mis_struct.end_address   = MISF_CIGS_PICLOG_END;
....................     }
....................     else if (mission_id == CIGS_ENVIRO_DATA)
....................     {
....................         mis_struct.start_address = MISF_CIGS_ENVIRO_START;
....................         mis_struct.end_address   = MISF_CIGS_ENVIRO_END;
....................     }
....................     else if (mission_id == CIGS_IV_DATA)
....................     {
....................         mis_struct.start_address = MISF_CIGS_IV_DATA_START;
....................         mis_struct.end_address   = MISF_CIGS_IV_DATA_END;
....................     }
....................     return mis_struct;
.................... }
.................... 
.................... MisfWriteStruct get_misf_write_struct(uint8_t mission_id)
.................... {
....................     MisfWriteStruct mis_write_struct = {0, 0};
.................... 
....................     if (mission_id == CIGS_DATA_TABLE)
....................     {
....................         mis_write_struct.start_address = MISF_CIGS_DATA_TABLE_START;
....................         mis_write_struct.size = MISF_CIGS_DATA_TABLE_SIZE;
....................     }
....................     else if (mission_id == CIGS_PICLOG_DATA)
....................     {
....................         mis_write_struct.start_address = MISF_CIGS_PICLOG_START + piclog_data.used_counter - piclog_data.uncopied_counter;
....................         mis_write_struct.size = piclog_data.uncopied_counter;
....................     }
....................     else if (mission_id == CIGS_ENVIRO_DATA)
....................     {
....................         mis_write_struct.start_address = MISF_CIGS_ENVIRO_START + environment_data.used_counter - environment_data.uncopied_counter;
....................         mis_write_struct.size = environment_data.uncopied_counter;
....................     }
....................     else if (mission_id == CIGS_IV_DATA)
....................     {
....................         mis_write_struct.start_address = MISF_CIGS_IV_DATA_START + iv_data.used_counter - iv_data.uncopied_counter;
....................         mis_write_struct.size = iv_data.uncopied_counter;
....................     }
.................... 
....................     return mis_write_struct;
.................... }
.................... 
.................... void print_flash_status()
.................... {
....................     fprintf(PC, "--- Flash Status ---\r\n");
....................     fprintf(PC, "PICLOG  Used: %lu, Uncopied: %lu\r\n", piclog_data.used_counter, piclog_data.uncopied_counter);
....................     fprintf(PC, "ENVIRO  Used: %lu, Uncopied: %lu\r\n", environment_data.used_counter, environment_data.uncopied_counter);
....................     fprintf(PC, "IV DATA Used: %lu, Uncopied: %lu\r\n", iv_data.used_counter, iv_data.uncopied_counter);
....................     fprintf(PC, "--------------------\r\n");
.................... }
.................... 
.................... 
.................... // アプリケーション実装ファイル
.................... #include "../application/mission/son_tmp_excute_mission.c"
.................... #include "son_tmp_excute_mission.h"
.................... #ifndef SON_TMP_EXCUTE_MISSION_H
.................... #define SON_TMP_EXCUTE_MISSION_H
.................... 
.................... #include <stdint.h>
.................... #include <stdbool.h>
.................... 
.................... #include "../../system/son_tmp_config.h"
.................... #include "../../../lib/communication/value_status.h"
.................... #include "../../../lib/communication/typedef_content.h" // Command構造体を使うために追加
.................... 
.................... // ============================================================================
.................... // 関数プロトタイプ
.................... // ============================================================================
.................... void cigs_system_init(void);
.................... 
.................... // バッファを直接読むのではなく、解析済みのCommandを引数で受け取るように変更
.................... int1 execute_command(Command* cmd);
.................... 
.................... #endif // SON_TMP_EXCUTE_MISSION_H
.................... 
.................... #include "../../hardware/mcu/uart.h"
.................... #ifndef UART_H
.................... #define UART_H
.................... 
.................... // _________ defines ________________
.................... 
.................... #define RECEIVE_BUFFER_MAX 32
.................... 
.................... 
.................... // _____________ values _______________
.................... 
.................... extern volatile unsigned int8 boss_receive_buffer[RECEIVE_BUFFER_MAX];
.................... extern volatile int8 boss_receive_buffer_size;
.................... 
.................... 
.................... // _______________ functions ___________
.................... 
.................... #INT_RDA3
.................... static void RDA_isr(void);
.................... 
.................... void setup_uart_to_boss();
.................... 
.................... void clear_receive_signal(unsigned int8 receive_signal[], int8 *receive_signal_size);
.................... 
.................... 
.................... 
.................... #endif
.................... 
.................... 
.................... #include "../../hardware/mcu/timer.h"
.................... #ifndef TIMER_H
.................... #define TIMER_H
.................... 
.................... #include <stdint.h>
.................... 
.................... // __________ values _________
.................... 
.................... // パケットヘッダーの timestamp で使用するための秒カウンタ
.................... extern volatile uint32_t sec;
.................... 
.................... 
.................... // __________ functions _________
.................... uint32_t get_current_sec();
.................... void set_current_sec(uint32_t new_sec);
.................... void setup_timer();
.................... 
.................... #INT_TIMER1
.................... void TIMER1_isr();
.................... 
.................... #endif
.................... 
.................... #include "../../core/logging/son_tmp_piclog.h"
.................... #ifndef son_tmp_PICLOG_H
.................... #define son_tmp_PICLOG_H
.................... 
.................... #include <stdint.h>
.................... #include <string.h>
.................... 
.................... // ============================================================================
.................... // PICLOG 定数定義
.................... // ============================================================================
.................... #define PICLOG_STARTUP     0x00
.................... #define PICLOG_PARAM_START 0x00
.................... #define PICLOG_PARAM_END   0xFF
.................... 
.................... #define PICLOG_PACKET_SIZE 6
.................... #define PICLOG_BLANK_SIZE  4
.................... 
.................... // ============================================================================
.................... // PICLOG データ構造体 (6 Byte)
.................... // ============================================================================
.................... typedef union
.................... {
....................     struct
....................     {
....................         uint32_t time;       // 4 Byte: タイムスタンプ
....................         uint8_t  function;   // 1 Byte: 実行関数・イベントID
....................         uint8_t  parameter;  // 1 Byte: パラメータ・状態
....................     } fields;
....................     uint8_t bytes[PICLOG_PACKET_SIZE];
.................... } PICLOG_t;
.................... 
.................... // ============================================================================
.................... // 外部公開関数プロトタイプ
.................... // ============================================================================
.................... 
.................... // ログを作成し、フラッシュメモリに書き込む
.................... // function: イベントID
.................... // parameter: 状態パラメータ
.................... void piclog_make(uint8_t function, uint8_t parameter);
.................... 
.................... #endif // son_tmp_PICLOG_H
.................... 
.................... #include "son_tmp_mode_mission.h"
.................... #ifndef son_tmp_MODE_MISSION_H
.................... #define son_tmp_MODE_MISSION_H
.................... 
.................... #include <stdint.h>
.................... #include "../../system/son_tmp_config.h"
.................... 
.................... // ============================================================================
.................... // 外部公開関数プロトタイプ
.................... // ============================================================================
.................... 
.................... // ミッションの全体シーケンスを実行する
.................... // ここから core/measurement/son_tmp_strain.c の計測関数を呼び出す
.................... void execute_mission_sequence(void);
.................... 
.................... #endif // son_tmp_MODE_MISSION_H
.................... 
.................... #include "son_tmp_mode_flash.h"
.................... #ifndef son_tmp_MODE_FLASH_H
.................... #define son_tmp_MODE_FLASH_H
.................... 
.................... #include <stdint.h>
.................... #include "../../system/son_tmp_config.h"
.................... 
.................... // ============================================================================
.................... // 外部公開関数プロトタイプ
.................... // ============================================================================
.................... 
.................... // SMF転送準備 (CMD_SMF_PREPARE 受信時に実行)
.................... void prepare_smf_transfer(void);
.................... 
.................... // SMFデータ転送実行 (REQ_SMF_COPY 受信時に実行)
.................... void execute_smf_transfer(void);
.................... 
.................... // SMF転送完了許可 (CMD_SMF_PERMIT 受信時に実行)
.................... void permit_smf_transfer(void);
.................... 
.................... #endif // son_tmp_MODE_FLASH_H
.................... 
.................... #include "../../../lib/communication/communication.h" // transmit_ack() 等を使うために追加
.................... #ifndef COMMUNICATION_H
.................... #define COMMUNICATION_H
.................... 
.................... // __________ device IDs ______________
.................... 
.................... #define GS        0x00
.................... #define MAIN_PIC  0x01
.................... #define COM_PIC   0x02
.................... #define RESET_PIC 0x03
.................... #define FAB_PIC   0x04
.................... #define BOSS_PIC  0x05
.................... #define APRS_PIC  0x06
.................... #define CAM_MCU   0x07
.................... #define CHO_MCU   0x08
.................... #define NAKA_PIC  0x09
.................... #define SATO_PIC  0x0A
.................... #define BHU_MCU   0x0B
.................... #define CIGS_PIC  0x0C
.................... 
....................  // <- change to your device name
.................... 
.................... 
.................... 
.................... 
.................... 
.................... 
.................... 
.................... 
.................... 
.................... 
.................... 
.................... 
.................... // ____________ SFD ______________
.................... 
.................... #define SFD 0xAA
.................... 
.................... 
.................... // ____________ typedef _____________
.................... 
.................... typedef struct {
....................     int8 id;
....................     int8 length;
.................... } FrameID;
.................... 
.................... #define CONTENT_MAX 9
.................... typedef struct {
....................     int8 frame_id;
....................     unsigned int8 size;
....................     int1 is_exist;
....................     unsigned int8 content[CONTENT_MAX];
.................... } Command;
.................... 
.................... #include "frame.h"
.................... 
.................... // ______ Receive _______
.................... 
.................... Command make_receive_command(unsigned int8 receive_signal[], int8 receive_signal_size);
.................... 
.................... static int8 trim_receive_signal_header(unsigned int8 receive_signal[], int8 receive_signal_size);
.................... 
.................... static int8 get_content_size(unsigned int8 frame_id);
.................... 
.................... static int1 check_crc(unsigned int8 frame[], int8 receive_frame_size);
.................... 
.................... static int1 check_device_id(unsigned int8 device_id);
.................... 
.................... 
.................... // ______ Transmit _______
.................... 
.................... void transmit_command(TransmitFrameId frame_id, unsigned int8 content[], int8 size);
.................... 
.................... static void transmit(unsigned int8 data[], int8 data_size);
.................... 
.................... // ______ Common _________
.................... 
.................... 
.................... #endif
.................... 
.................... 
.................... 
.................... // ============================================================================
.................... // グローバル変数の実体定義
.................... // ============================================================================
.................... unsigned int8 status = 0;
.................... int1 is_use_smf_req_in_mission = 0;
.................... 
.................... // ============================================================================
.................... // 初期化・ディスパッチ処理
.................... // ============================================================================
.................... 
.................... void cigs_system_init(void)
.................... {
....................     fprintf(PC, "TMP System Initialize Start\r\n");
.................... 
....................     disable_interrupts(GLOBAL);
.................... 
....................     setup_timer();
....................     setup_uart_to_boss();
.................... 
....................     status = 0;
....................     is_use_smf_req_in_mission = 0;
.................... 
....................     piclog_make(0x00, 0x00); // PICLOG_STARTUP
.................... 
....................     fprintf(PC, "TMP System Initialize Complete\r\n");
.................... }
.................... 
.................... static void process_boss_command(uint8_t cmd)
.................... {
....................     fprintf(PC, "Received Command: 0x%02X\r\n", cmd);
*
03802:  MOVLW  1A
03804:  MOVWF  FF6
03806:  MOVLW  07
03808:  MOVWF  FF7
0380A:  MOVLW  00
0380C:  MOVWF  FF8
0380E:  MOVLW  14
03810:  MOVLB  2
03812:  MOVWF  x0C
03814:  MOVLB  0
03816:  CALL   0A72
0381A:  MOVFF  167,185
0381E:  MOVLW  37
03820:  MOVLB  1
03822:  MOVWF  x86
03824:  MOVLB  0
03826:  CALL   13BA
0382A:  MOVLW  0D
0382C:  MOVLB  2
0382E:  MOVWF  x10
03830:  MOVLB  0
03832:  CALL   09F0
03836:  MOVLW  0A
03838:  MOVLB  2
0383A:  MOVWF  x10
0383C:  MOVLB  0
0383E:  CALL   09F0
.................... 
....................     switch (cmd)
03842:  MOVLB  1
03844:  MOVF   x67,W
03846:  XORLW  10
03848:  MOVLB  0
0384A:  BTFSC  FD8.2
0384C:  GOTO   3874
03850:  XORLW  30
03852:  BTFSC  FD8.2
03854:  GOTO   3880
03858:  XORLW  01
0385A:  BTFSC  FD8.2
0385C:  GOTO   388C
03860:  XORLW  03
03862:  BTFSC  FD8.2
03864:  GOTO   3894
03868:  XORLW  12
0386A:  BTFSC  FD8.2
0386C:  GOTO   389C
03870:  GOTO   38A2
....................     {
....................         case CMD_MISSION_START:
....................         {
....................             status = EXECUTING_MISSION;
03874:  MOVLW  02
03876:  MOVWF  41
....................             execute_mission_sequence();
03878:  GOTO   30C6
....................             break;
0387C:  GOTO   38E6
....................         }
....................         case CMD_SMF_PREPARE:
....................         {
....................             status = COPYING;
03880:  MOVLW  05
03882:  MOVWF  41
....................             prepare_smf_transfer();
03884:  GOTO   3528
....................             break;
03888:  GOTO   38E6
....................         }
....................         case REQ_SMF_COPY:
....................         {
....................             execute_smf_transfer();
0388C:  GOTO   372E
....................             break;
03890:  GOTO   38E6
....................         }
....................         case CMD_SMF_PERMIT:
....................         {
....................             permit_smf_transfer();
03894:  GOTO   37C8
....................             break;
03898:  GOTO   38E6
....................         }
....................         case REQ_POWER_OFF:
....................         {
....................             status = 0;
0389C:  CLRF   41
....................             break;
0389E:  GOTO   38E6
....................         }
....................         default:
....................         {
....................             fprintf(PC, "Unknown Command: 0x%02X\r\n", cmd);
038A2:  MOVLW  36
038A4:  MOVWF  FF6
038A6:  MOVLW  07
038A8:  MOVWF  FF7
038AA:  MOVLW  00
038AC:  MOVWF  FF8
038AE:  MOVLW  13
038B0:  MOVLB  2
038B2:  MOVWF  x0C
038B4:  MOVLB  0
038B6:  CALL   0A72
038BA:  MOVFF  167,185
038BE:  MOVLW  37
038C0:  MOVLB  1
038C2:  MOVWF  x86
038C4:  MOVLB  0
038C6:  CALL   13BA
038CA:  MOVLW  0D
038CC:  MOVLB  2
038CE:  MOVWF  x10
038D0:  MOVLB  0
038D2:  CALL   09F0
038D6:  MOVLW  0A
038D8:  MOVLB  2
038DA:  MOVWF  x10
038DC:  MOVLB  0
038DE:  CALL   09F0
....................             break;
038E2:  GOTO   38E6
....................         }
....................     }
038E6:  GOTO   3916 (RETURN)
.................... }
.................... 
.................... // 変更: 解析済みのコマンドを引数として受け取る
.................... int1 execute_command(Command* cmd)
038EA:  MOVLB  1
038EC:  MOVF   x64,W
038EE:  MOVWF  FE9
038F0:  MOVF   x65,W
038F2:  MOVWF  FEA
038F4:  MOVFF  FEF,166
.................... {
....................     uint8_t frame_id = cmd->frame_id;
.................... 
....................     // コマンドを受理したことをBOSS(シミュレータ)に知らせる (ACKを返す)
....................     transmit_ack();
038F8:  MOVLB  0
038FA:  GOTO   2966
.................... 
....................     // コマンド受信ログを記録
....................     piclog_make(0x10, frame_id);
038FE:  MOVLW  10
03900:  MOVLB  1
03902:  MOVWF  x6C
03904:  MOVFF  166,16D
03908:  MOVLB  0
0390A:  CALL   1FA6
.................... 
....................     // コマンドに応じた処理へ分岐
....................     process_boss_command(frame_id);
0390E:  MOVFF  166,167
03912:  GOTO   3802
.................... 
....................     return TRUE; // コマンドが正常に処理されたことを示す
03916:  MOVLW  01
03918:  MOVWF  01
0391A:  GOTO   3F56 (RETURN)
.................... }
.................... 
.................... #include "../application/mission/son_tmp_mode_mission.c"
.................... #include "son_tmp_mode_mission.h"
.................... #ifndef son_tmp_MODE_MISSION_H
.................... #define son_tmp_MODE_MISSION_H
.................... 
.................... #include <stdint.h>
.................... #include "../../system/son_tmp_config.h"
.................... 
.................... // ============================================================================
.................... // 外部公開関数プロトタイプ
.................... // ============================================================================
.................... 
.................... // ミッションの全体シーケンスを実行する
.................... // ここから core/measurement/son_tmp_strain.c の計測関数を呼び出す
.................... void execute_mission_sequence(void);
.................... 
.................... #endif // son_tmp_MODE_MISSION_H
.................... 
.................... #include "../../core/measurement/son_tmp_strain.h"
.................... #ifndef son_tmp_strain_H
.................... #define son_tmp_strain_H
.................... 
.................... #include <stdint.h>
.................... #include <stdbool.h>
.................... #include "../../system/son_tmp_config.h"
.................... 
.................... // ============================================================================
.................... // 外部公開関数プロトタイプ
.................... // ============================================================================
.................... 
.................... // ペリフェラルの初期化 (ピンの出力設定など)
.................... void io_init(void);
.................... 
.................... // アナログスイッチの切り替え (0〜3チャンネル)
.................... void switch_channel(uint8_t ch);
.................... 
.................... // LTC2452から16bitのADC値を読み取る
.................... uint16_t read_adc_ltc2452(void);
.................... 
.................... // 計測シーケンスの実行とFlashへの保存 (IVデータ ＋ 温度データを連続実行)
.................... // mode: 動作モード
.................... // channel: 測定チャンネル (MAX4734EUB+ の選択)
.................... // samplingRate: サンプリングレート設定値
.................... void execute_measurement(uint8_t mode, uint8_t channel, uint8_t samplingRate);
.................... 
.................... #endif // son_tmp_strain_H
.................... 
.................... #include "../../core/logging/son_tmp_piclog.h"
.................... #ifndef son_tmp_PICLOG_H
.................... #define son_tmp_PICLOG_H
.................... 
.................... #include <stdint.h>
.................... #include <string.h>
.................... 
.................... // ============================================================================
.................... // PICLOG 定数定義
.................... // ============================================================================
.................... #define PICLOG_STARTUP     0x00
.................... #define PICLOG_PARAM_START 0x00
.................... #define PICLOG_PARAM_END   0xFF
.................... 
.................... #define PICLOG_PACKET_SIZE 6
.................... #define PICLOG_BLANK_SIZE  4
.................... 
.................... // ============================================================================
.................... // PICLOG データ構造体 (6 Byte)
.................... // ============================================================================
.................... typedef union
.................... {
....................     struct
....................     {
....................         uint32_t time;       // 4 Byte: タイムスタンプ
....................         uint8_t  function;   // 1 Byte: 実行関数・イベントID
....................         uint8_t  parameter;  // 1 Byte: パラメータ・状態
....................     } fields;
....................     uint8_t bytes[PICLOG_PACKET_SIZE];
.................... } PICLOG_t;
.................... 
.................... // ============================================================================
.................... // 外部公開関数プロトタイプ
.................... // ============================================================================
.................... 
.................... // ログを作成し、フラッシュメモリに書き込む
.................... // function: イベントID
.................... // parameter: 状態パラメータ
.................... void piclog_make(uint8_t function, uint8_t parameter);
.................... 
.................... #endif // son_tmp_PICLOG_H
.................... 
.................... #include "son_tmp_excute_mission.h"
.................... #ifndef SON_TMP_EXCUTE_MISSION_H
.................... #define SON_TMP_EXCUTE_MISSION_H
.................... 
.................... #include <stdint.h>
.................... #include <stdbool.h>
.................... 
.................... #include "../../system/son_tmp_config.h"
.................... #include "../../../lib/communication/value_status.h"
.................... #include "../../../lib/communication/typedef_content.h" // Command構造体を使うために追加
.................... 
.................... // ============================================================================
.................... // 関数プロトタイプ
.................... // ============================================================================
.................... void cigs_system_init(void);
.................... 
.................... // バッファを直接読むのではなく、解析済みのCommandを引数で受け取るように変更
.................... int1 execute_command(Command* cmd);
.................... 
.................... #endif // SON_TMP_EXCUTE_MISSION_H
.................... 
.................... 
.................... // ============================================================================
.................... // ミッション実行シーケンス
.................... // ============================================================================
.................... 
.................... void execute_mission_sequence(void)
.................... {
....................     fprintf(PC, "--- Mission Sequence Start ---\r\n");
*
030C6:  MOVLW  50
030C8:  MOVWF  FF6
030CA:  MOVLW  07
030CC:  MOVWF  FF7
030CE:  MOVLW  00
030D0:  MOVWF  FF8
030D2:  CALL   0A42
.................... 
....................     // ミッション開始ログの記録 (イベントID: 0x11, パラメータ: 0x00 と仮定)
....................     piclog_make(0x11, 0x00);
030D6:  MOVLW  11
030D8:  MOVLB  1
030DA:  MOVWF  x6C
030DC:  CLRF   x6D
030DE:  MOVLB  0
030E0:  CALL   1FA6
.................... 
....................     // アナログスイッチ(MAX4734EUB+)で選択可能なチャンネル (0〜3)
....................     uint8_t num_channels = 4;
.................... 
....................     // サンプリングレート設定 (例として 0x01 を指定)
....................     uint8_t samplingRate = 0x01;
.................... 
....................     // 現在の動作モード (例として通常計測モード: 0x01 を指定)
....................     uint8_t mode = 0x01;
030E4:  MOVLW  04
030E6:  MOVLB  1
030E8:  MOVWF  x68
030EA:  MOVLW  01
030EC:  MOVWF  x69
030EE:  MOVLW  01
030F0:  MOVWF  x6A
.................... 
....................     // 全チャンネルを順番に計測するシナリオ
....................     for (uint8_t ch = 0; ch < num_channels; ch++)
030F2:  CLRF   x6B
030F4:  MOVLB  0
030F6:  MOVLB  1
030F8:  MOVF   x68,W
030FA:  SUBWF  x6B,W
030FC:  BTFSS  FD8.0
030FE:  BRA    3106
03100:  MOVLB  0
03102:  GOTO   316E
03106:  MOVLB  0
....................     {
....................         fprintf(PC, "Executing Channel: %u\r\n", ch);
03108:  MOVLW  72
0310A:  MOVWF  FF6
0310C:  MOVLW  07
0310E:  MOVWF  FF7
03110:  MOVLW  00
03112:  MOVWF  FF8
03114:  MOVLW  13
03116:  MOVLB  2
03118:  MOVWF  x0C
0311A:  MOVLB  0
0311C:  CALL   0A72
03120:  MOVFF  16B,20C
03124:  MOVLW  1B
03126:  MOVLB  2
03128:  MOVWF  x0D
0312A:  MOVLB  0
0312C:  CALL   297C
03130:  MOVLW  0D
03132:  MOVLB  2
03134:  MOVWF  x10
03136:  MOVLB  0
03138:  CALL   09F0
0313C:  MOVLW  0A
0313E:  MOVLB  2
03140:  MOVWF  x10
03142:  MOVLB  0
03144:  CALL   09F0
.................... 
....................         // iv.c 側の計測処理を呼び出し（内部で温度計測も連続して呼ばれる）
....................         execute_measurement(mode, ch, samplingRate);
03148:  MOVFF  16A,16C
0314C:  MOVFF  16B,16D
03150:  MOVFF  169,16E
03154:  GOTO   2D82
.................... 
....................         // チャンネル切り替え間のインターバル
....................         delay_ms(100);
03158:  MOVLW  64
0315A:  MOVLB  2
0315C:  MOVWF  x24
0315E:  MOVLB  0
03160:  CALL   09C2
03164:  MOVLB  1
03166:  INCF   x6B,F
03168:  MOVLB  0
0316A:  GOTO   30F6
....................     }
.................... 
....................     // ミッション終了ログの記録 (イベントID: 0x12, パラメータ: 0x00 と仮定)
....................     piclog_make(0x12, 0x00);
0316E:  MOVLW  12
03170:  MOVLB  1
03172:  MOVWF  x6C
03174:  CLRF   x6D
03176:  MOVLB  0
03178:  CALL   1FA6
.................... 
....................     // ミッション完了後、ステータスをIDLEに戻す
....................     //status = IDLE;
.................... 
....................     // TODO: 必要であればここでBOSSへ完了応答(RES_MISSION_DONE)を送信する処理を追加
.................... 
....................     fprintf(PC, "--- Mission Sequence Complete ---\r\n");
0317C:  MOVLW  8A
0317E:  MOVWF  FF6
03180:  MOVLW  07
03182:  MOVWF  FF7
03184:  MOVLW  00
03186:  MOVWF  FF8
03188:  CALL   0A42
0318C:  GOTO   387C (RETURN)
.................... }
.................... 
.................... #include "../application/mission/son_tmp_mode_flash.c"
.................... #include "son_tmp_mode_flash.h"
.................... #ifndef son_tmp_MODE_FLASH_H
.................... #define son_tmp_MODE_FLASH_H
.................... 
.................... #include <stdint.h>
.................... #include "../../system/son_tmp_config.h"
.................... 
.................... // ============================================================================
.................... // 外部公開関数プロトタイプ
.................... // ============================================================================
.................... 
.................... // SMF転送準備 (CMD_SMF_PREPARE 受信時に実行)
.................... void prepare_smf_transfer(void);
.................... 
.................... // SMFデータ転送実行 (REQ_SMF_COPY 受信時に実行)
.................... void execute_smf_transfer(void);
.................... 
.................... // SMF転送完了許可 (CMD_SMF_PERMIT 受信時に実行)
.................... void permit_smf_transfer(void);
.................... 
.................... #endif // son_tmp_MODE_FLASH_H
.................... 
.................... #include "son_tmp_excute_mission.h"
.................... #ifndef SON_TMP_EXCUTE_MISSION_H
.................... #define SON_TMP_EXCUTE_MISSION_H
.................... 
.................... #include <stdint.h>
.................... #include <stdbool.h>
.................... 
.................... #include "../../system/son_tmp_config.h"
.................... #include "../../../lib/communication/value_status.h"
.................... #include "../../../lib/communication/typedef_content.h" // Command構造体を使うために追加
.................... 
.................... // ============================================================================
.................... // 関数プロトタイプ
.................... // ============================================================================
.................... void cigs_system_init(void);
.................... 
.................... // バッファを直接読むのではなく、解析済みのCommandを引数で受け取るように変更
.................... int1 execute_command(Command* cmd);
.................... 
.................... #endif // SON_TMP_EXCUTE_MISSION_H
.................... 
.................... #include "../../core/logging/son_tmp_piclog.h"
.................... #ifndef son_tmp_PICLOG_H
.................... #define son_tmp_PICLOG_H
.................... 
.................... #include <stdint.h>
.................... #include <string.h>
.................... 
.................... // ============================================================================
.................... // PICLOG 定数定義
.................... // ============================================================================
.................... #define PICLOG_STARTUP     0x00
.................... #define PICLOG_PARAM_START 0x00
.................... #define PICLOG_PARAM_END   0xFF
.................... 
.................... #define PICLOG_PACKET_SIZE 6
.................... #define PICLOG_BLANK_SIZE  4
.................... 
.................... // ============================================================================
.................... // PICLOG データ構造体 (6 Byte)
.................... // ============================================================================
.................... typedef union
.................... {
....................     struct
....................     {
....................         uint32_t time;       // 4 Byte: タイムスタンプ
....................         uint8_t  function;   // 1 Byte: 実行関数・イベントID
....................         uint8_t  parameter;  // 1 Byte: パラメータ・状態
....................     } fields;
....................     uint8_t bytes[PICLOG_PACKET_SIZE];
.................... } PICLOG_t;
.................... 
.................... // ============================================================================
.................... // 外部公開関数プロトタイプ
.................... // ============================================================================
.................... 
.................... // ログを作成し、フラッシュメモリに書き込む
.................... // function: イベントID
.................... // parameter: 状態パラメータ
.................... void piclog_make(uint8_t function, uint8_t parameter);
.................... 
.................... #endif // son_tmp_PICLOG_H
.................... 
.................... #include "../../core/storage/son_tmp_smf.h"
.................... #ifndef son_tmp_SMF_H
.................... #define son_tmp_SMF_H
.................... 
.................... #include <stdint.h>
.................... #include "../../system/son_tmp_config.h"
.................... 
.................... // ============================================================================
.................... // 外部公開関数プロトタイプ
.................... // ============================================================================
.................... 
.................... // SMFへの転送準備（アドレスとサイズの計算）
.................... void cigs_smf_prepare(void);
.................... 
.................... // MIS_FMからデータを読み出し、SMF(CPLD)へSPI送信
.................... void cigs_smf_copy(void);
.................... 
.................... // 転送完了を確認し、フラッシュのカウンタを更新
.................... void cigs_smf_permit(void);
.................... 
.................... #endif // son_tmp_SMF_H
.................... 
.................... 
.................... // ============================================================================
.................... // SMF（CPLD経由）転送シーケンス
.................... // ============================================================================
.................... 
.................... void prepare_smf_transfer(void)
.................... {
....................     fprintf(PC, "--- SMF Transfer Prepare ---\r\n");
*
03528:  MOVLW  AE
0352A:  MOVWF  FF6
0352C:  MOVLW  07
0352E:  MOVWF  FF7
03530:  MOVLW  00
03532:  MOVWF  FF8
03534:  CALL   0A42
.................... 
....................     // 準備開始のログ記録 (イベントID: 0x20, パラメータ: 0x00 と仮定)
....................     piclog_make(0x20, 0x00);
03538:  MOVLW  20
0353A:  MOVLB  1
0353C:  MOVWF  x6C
0353E:  CLRF   x6D
03540:  MOVLB  0
03542:  CALL   1FA6
.................... 
....................     // 状態を COPYING に遷移 (excute_mission.c 側でも遷移済みだが念のため)
....................     //status = COPYING;
.................... 
....................     // TODO: cigs_smf.c 側の転送準備処理（転送先頭アドレスの計算やキューの準備）を呼び出す
....................     // cigs_smf_prepare();
....................     cigs_smf_prepare();
03546:  GOTO   336C
0354A:  GOTO   3888 (RETURN)
.................... }
.................... 
.................... void execute_smf_transfer(void)
.................... {
....................     fprintf(PC, "--- SMF Transfer Execute ---\r\n");
*
0372E:  MOVLW  CE
03730:  MOVWF  FF6
03732:  MOVLW  07
03734:  MOVWF  FF7
03736:  MOVLW  00
03738:  MOVWF  FF8
0373A:  CALL   0A42
.................... 
....................     // 転送開始のログ記録 (イベントID: 0x21, パラメータ: 0x00 と仮定)
....................     piclog_make(0x21, 0x00);
0373E:  MOVLW  21
03740:  MOVLB  1
03742:  MOVWF  x6C
03744:  CLRF   x6D
03746:  MOVLB  0
03748:  CALL   1FA6
.................... 
....................     cigs_smf_copy();
0374C:  GOTO   354E
03750:  GOTO   3890 (RETURN)
.................... }
.................... 
.................... void permit_smf_transfer(void)
.................... {
....................     fprintf(PC, "--- SMF Transfer Permit ---\r\n");
*
037C8:  MOVLW  EE
037CA:  MOVWF  FF6
037CC:  MOVLW  07
037CE:  MOVWF  FF7
037D0:  MOVLW  00
037D2:  MOVWF  FF8
037D4:  CALL   0A42
.................... 
....................     // 許可のログ記録 (イベントID: 0x22, パラメータ: 0x00 と仮定)
....................     piclog_make(0x22, 0x00);
037D8:  MOVLW  22
037DA:  MOVLB  1
037DC:  MOVWF  x6C
037DE:  CLRF   x6D
037E0:  MOVLB  0
037E2:  CALL   1FA6
.................... 
....................     cigs_smf_permit();
037E6:  GOTO   3754
.................... 
....................     // 一連の転送シーケンスが完了したため、システム状態を IDLE に戻す
....................     status = IDLE;
037EA:  MOVLW  03
037EC:  MOVWF  41
.................... 
....................     fprintf(PC, "--- SMF Transfer Sequence Complete ---\r\n");
037EE:  MOVLW  0C
037F0:  MOVWF  FF6
037F2:  MOVLW  08
037F4:  MOVWF  FF7
037F6:  MOVLW  00
037F8:  MOVWF  FF8
037FA:  CALL   0A42
037FE:  GOTO   3898 (RETURN)
.................... }
.................... 
.................... 
.................... #endif // son_tmp_MAIN_H
.................... //------------------End of File------------------
.................... 
.................... 
.................... void main()
*
0391E:  CLRF   FF8
03920:  BCF    FD0.7
03922:  BSF    07.7
03924:  MOVLB  E
03926:  MOVLW  55
03928:  MOVWF  F7E
0392A:  MOVLW  AA
0392C:  MOVWF  F7E
0392E:  BCF    F66.6
03930:  MOVLW  F5
03932:  MOVWF  x2C
03934:  MOVLW  20
03936:  MOVWF  x1C
03938:  MOVLW  55
0393A:  MOVWF  F7E
0393C:  MOVLW  AA
0393E:  MOVWF  F7E
03940:  BSF    F66.6
03942:  CLRF   F9B
03944:  CLRF   F64
03946:  CLRF   F65
03948:  CLRF   F66
0394A:  MOVLW  02
0394C:  MOVWF  FD3
0394E:  BCF    F98.0
03950:  BSF    F8F.0
03952:  CLRF   1B
03954:  MOVLB  F
03956:  BSF    x2D.3
03958:  MOVLW  A0
0395A:  MOVWF  x2B
0395C:  MOVLW  01
0395E:  MOVWF  x2C
03960:  MOVLW  A6
03962:  MOVWF  x2E
03964:  MOVLW  90
03966:  MOVWF  x2F
03968:  BSF    F93.5
0396A:  BCF    F93.4
0396C:  BCF    F93.2
0396E:  BCF    F8A.2
03970:  BSF    F95.6
03972:  BCF    F95.7
03974:  BCF    F95.5
03976:  BCF    F8C.5
03978:  CLRF   1F
0397A:  CLRF   1E
0397C:  CLRF   1D
0397E:  CLRF   1C
03980:  MOVLB  1
03982:  CLRF   x41
03984:  CLRF   x43
03986:  CLRF   x42
03988:  CLRF   40
0398A:  CLRF   41
0398C:  BCF    42.0
0398E:  MOVLB  E
03990:  CLRF   xD9
03992:  CLRF   xDA
03994:  CLRF   xCE
03996:  CLRF   xCF
03998:  CLRF   xD0
0399A:  CLRF   xD1
0399C:  CLRF   xD2
0399E:  CLRF   xD3
039A0:  CLRF   xD4
039A2:  CLRF   xD5
039A4:  CLRF   x45
039A6:  CLRF   x46
039A8:  CLRF   x47
039AA:  BCF    x8D.7
039AC:  BCF    x8D.6
039AE:  BCF    x8D.5
039B0:  MOVLB  F
039B2:  CLRF   x53
039B4:  CLRF   x38
039B6:  CLRF   x37
039B8:  MOVLB  0
039BA:  CLRF   43
039BC:  CLRF   44
039BE:  CLRF   45
039C0:  CLRF   46
039C2:  CLRF   47
039C4:  CLRF   48
039C6:  CLRF   49
039C8:  CLRF   4A
039CA:  CLRF   4B
039CC:  CLRF   4C
039CE:  CLRF   4D
039D0:  CLRF   4E
039D2:  CLRF   4F
039D4:  CLRF   50
039D6:  CLRF   51
039D8:  CLRF   52
039DA:  CLRF   53
039DC:  CLRF   54
039DE:  CLRF   55
039E0:  CLRF   56
039E2:  CLRF   57
039E4:  CLRF   58
039E6:  CLRF   59
039E8:  CLRF   5A
039EA:  CLRF   5B
039EC:  CLRF   5C
039EE:  CLRF   5D
039F0:  CLRF   5E
039F2:  CLRF   5F
039F4:  CLRF   x60
039F6:  CLRF   x61
039F8:  CLRF   x62
039FA:  CLRF   x63
039FC:  CLRF   x64
039FE:  CLRF   x65
03A00:  CLRF   x66
03A02:  CLRF   x67
03A04:  CLRF   x68
03A06:  CLRF   x69
03A08:  CLRF   x6A
03A0A:  CLRF   x6B
03A0C:  CLRF   x6C
03A0E:  CLRF   x6D
03A10:  CLRF   x6E
03A12:  CLRF   x6F
03A14:  CLRF   x70
03A16:  CLRF   x71
03A18:  CLRF   x72
03A1A:  CLRF   x73
03A1C:  CLRF   x74
03A1E:  CLRF   x75
03A20:  CLRF   x76
03A22:  CLRF   x77
03A24:  CLRF   x78
03A26:  CLRF   x79
03A28:  CLRF   x7A
03A2A:  CLRF   x7B
03A2C:  CLRF   x7C
03A2E:  CLRF   x7D
03A30:  CLRF   x7E
03A32:  CLRF   x7F
03A34:  CLRF   x80
03A36:  CLRF   x81
03A38:  CLRF   x82
03A3A:  CLRF   x83
03A3C:  CLRF   x84
03A3E:  CLRF   x85
03A40:  CLRF   x86
03A42:  CLRF   x87
03A44:  CLRF   x88
03A46:  CLRF   x89
03A48:  CLRF   x8A
03A4A:  CLRF   x8B
03A4C:  CLRF   x8C
03A4E:  CLRF   x8D
03A50:  CLRF   x8E
03A52:  CLRF   x8F
03A54:  CLRF   x90
03A56:  CLRF   x91
03A58:  CLRF   x92
03A5A:  CLRF   x93
03A5C:  CLRF   x94
03A5E:  CLRF   x95
03A60:  CLRF   x96
03A62:  CLRF   x97
03A64:  CLRF   x98
03A66:  CLRF   x99
03A68:  CLRF   x9A
03A6A:  CLRF   x9B
03A6C:  CLRF   x9C
03A6E:  CLRF   x9D
03A70:  CLRF   x9E
03A72:  CLRF   x9F
03A74:  CLRF   xA0
03A76:  CLRF   xA1
03A78:  CLRF   xA2
03A7A:  CLRF   xA3
03A7C:  CLRF   xA4
03A7E:  CLRF   xA5
03A80:  CLRF   xA6
03A82:  CLRF   xA7
03A84:  CLRF   xA8
03A86:  CLRF   xA9
03A88:  CLRF   xAA
03A8A:  CLRF   xAB
03A8C:  CLRF   xAC
03A8E:  CLRF   xAD
03A90:  CLRF   xAE
03A92:  CLRF   xAF
03A94:  CLRF   xB0
03A96:  CLRF   xB1
03A98:  CLRF   xB2
03A9A:  CLRF   xB3
03A9C:  CLRF   xB4
03A9E:  CLRF   xB5
03AA0:  CLRF   xB6
03AA2:  CLRF   xB7
03AA4:  CLRF   xB8
03AA6:  CLRF   xB9
03AA8:  CLRF   xBA
03AAA:  CLRF   xBB
03AAC:  CLRF   xBC
03AAE:  CLRF   xBD
03AB0:  CLRF   xBE
03AB2:  CLRF   xBF
03AB4:  CLRF   xC0
03AB6:  CLRF   xC1
03AB8:  CLRF   xC2
03ABA:  CLRF   xC3
03ABC:  CLRF   xC4
03ABE:  CLRF   xC5
03AC0:  CLRF   xC6
03AC2:  CLRF   xC7
03AC4:  CLRF   xC8
03AC6:  CLRF   xC9
03AC8:  CLRF   xCA
03ACA:  CLRF   xCB
03ACC:  CLRF   xCC
03ACE:  CLRF   xCD
03AD0:  CLRF   xCE
03AD2:  CLRF   xCF
03AD4:  CLRF   xD0
03AD6:  CLRF   xD1
03AD8:  CLRF   xD2
03ADA:  CLRF   xD3
03ADC:  CLRF   xD4
03ADE:  CLRF   xD5
03AE0:  CLRF   xD6
03AE2:  CLRF   xD7
03AE4:  CLRF   xD8
03AE6:  CLRF   xD9
03AE8:  CLRF   xDA
03AEA:  CLRF   xDB
03AEC:  CLRF   xDC
03AEE:  CLRF   xDD
03AF0:  CLRF   xDE
03AF2:  CLRF   xDF
03AF4:  CLRF   xE0
03AF6:  CLRF   xE1
03AF8:  CLRF   xE2
03AFA:  CLRF   xE3
03AFC:  CLRF   xE4
03AFE:  CLRF   xE5
03B00:  CLRF   xE6
03B02:  CLRF   xE7
03B04:  CLRF   xE8
03B06:  CLRF   xE9
03B08:  CLRF   xEA
03B0A:  CLRF   xEB
03B0C:  CLRF   xEC
03B0E:  CLRF   xED
03B10:  CLRF   xEE
03B12:  CLRF   xEF
03B14:  CLRF   xF0
03B16:  CLRF   xF1
03B18:  CLRF   xF2
03B1A:  CLRF   xF3
03B1C:  CLRF   xF4
03B1E:  CLRF   xF5
03B20:  CLRF   xF6
03B22:  CLRF   xF7
03B24:  CLRF   xF8
03B26:  CLRF   xF9
03B28:  CLRF   xFA
03B2A:  CLRF   xFB
03B2C:  CLRF   xFC
03B2E:  CLRF   xFD
03B30:  CLRF   xFE
03B32:  CLRF   xFF
03B34:  MOVLB  1
03B36:  CLRF   x00
03B38:  CLRF   x01
03B3A:  CLRF   x02
03B3C:  CLRF   x03
03B3E:  CLRF   x04
03B40:  CLRF   x05
03B42:  CLRF   x06
03B44:  MOVLW  09
03B46:  MOVWF  x07
03B48:  MOVLW  7C
03B4A:  MOVWF  x08
03B4C:  MOVLW  01
03B4E:  MOVWF  x09
03B50:  MOVLW  01
03B52:  MOVWF  x0A
03B54:  MOVLW  1C
03B56:  MOVWF  x0B
03B58:  MOVLW  7C
03B5A:  MOVWF  x0C
03B5C:  CLRF   x0D
03B5E:  MOVLW  09
03B60:  MOVWF  x0E
03B62:  MOVLW  01
03B64:  MOVWF  x0F
03B66:  CLRF   x10
03B68:  MOVLW  02
03B6A:  MOVWF  x11
03B6C:  MOVLW  01
03B6E:  MOVWF  x12
03B70:  CLRF   x13
03B72:  CLRF   x14
03B74:  CLRF   20
03B76:  CLRF   21
03B78:  CLRF   22
03B7A:  CLRF   23
03B7C:  CLRF   24
03B7E:  CLRF   25
03B80:  CLRF   26
03B82:  CLRF   27
03B84:  CLRF   28
03B86:  CLRF   29
03B88:  CLRF   2A
03B8A:  CLRF   2B
03B8C:  CLRF   2C
03B8E:  CLRF   2D
03B90:  CLRF   2E
03B92:  CLRF   2F
03B94:  CLRF   30
03B96:  CLRF   31
03B98:  CLRF   32
03B9A:  CLRF   33
03B9C:  CLRF   34
03B9E:  CLRF   35
03BA0:  CLRF   36
03BA2:  CLRF   37
03BA4:  CLRF   38
03BA6:  CLRF   39
03BA8:  CLRF   3A
03BAA:  CLRF   3B
03BAC:  CLRF   3C
03BAE:  CLRF   3D
03BB0:  CLRF   3E
03BB2:  CLRF   3F
03BB4:  CLRF   x44
03BB6:  CLRF   x45
03BB8:  CLRF   x46
03BBA:  CLRF   x47
03BBC:  CLRF   x48
03BBE:  CLRF   x49
03BC0:  CLRF   x4A
03BC2:  CLRF   x4B
03BC4:  CLRF   x4C
03BC6:  CLRF   x4D
03BC8:  CLRF   x4E
03BCA:  CLRF   x4F
03BCC:  MOVLW  01
03BCE:  MOVWF  x15
03BD0:  CLRF   x16
03BD2:  CLRF   x17
03BD4:  CLRF   x18
03BD6:  CLRF   x19
03BD8:  CLRF   x1A
03BDA:  CLRF   x1B
03BDC:  CLRF   x1C
03BDE:  CLRF   x1D
03BE0:  CLRF   x1E
03BE2:  CLRF   x1F
03BE4:  MOVLW  02
03BE6:  MOVWF  x20
03BE8:  CLRF   x21
03BEA:  CLRF   x22
03BEC:  CLRF   x23
03BEE:  CLRF   x24
03BF0:  CLRF   x25
03BF2:  CLRF   x26
03BF4:  CLRF   x27
03BF6:  CLRF   x28
03BF8:  CLRF   x29
03BFA:  CLRF   x2A
03BFC:  MOVLW  03
03BFE:  MOVWF  x2B
03C00:  CLRF   x2C
03C02:  CLRF   x2D
03C04:  CLRF   x2E
03C06:  CLRF   x2F
03C08:  CLRF   x30
03C0A:  CLRF   x31
03C0C:  CLRF   x32
03C0E:  CLRF   x33
03C10:  CLRF   x34
03C12:  CLRF   x35
03C14:  MOVLW  04
03C16:  MOVWF  x36
03C18:  CLRF   x37
03C1A:  CLRF   x38
03C1C:  CLRF   x39
03C1E:  CLRF   x3A
03C20:  CLRF   x3B
03C22:  CLRF   x3C
03C24:  CLRF   x3D
03C26:  CLRF   x3E
03C28:  CLRF   x3F
03C2A:  CLRF   x40
03C2C:  MOVLB  0
.................... {
....................     delay_ms(100);
03C2E:  MOVLW  64
03C30:  MOVLB  2
03C32:  MOVWF  x24
03C34:  MOVLB  0
03C36:  CALL   09C2
....................     fprintf(PC,"\r\n\r\n\r\n============================================================\r\n");
03C3A:  MOVLW  36
03C3C:  MOVWF  FF6
03C3E:  MOVLW  08
03C40:  MOVWF  FF7
03C42:  MOVLW  00
03C44:  MOVWF  FF8
03C46:  CALL   0A42
....................     fprintf(PC,"This is SHION TMP PIC.\r\n");
03C4A:  MOVLW  7C
03C4C:  MOVWF  FF6
03C4E:  MOVLW  08
03C50:  MOVWF  FF7
03C52:  MOVLW  00
03C54:  MOVWF  FF8
03C56:  CALL   0A42
....................     fprintf(PC,"Last updated on %s %s.\r\n\r\n", __DATE__, __TIME__);
03C5A:  MOVLW  96
03C5C:  MOVWF  FF6
03C5E:  MOVLW  08
03C60:  MOVWF  FF7
03C62:  MOVLW  00
03C64:  MOVWF  FF8
03C66:  MOVLW  10
03C68:  MOVLB  2
03C6A:  MOVWF  x0C
03C6C:  MOVLB  0
03C6E:  CALL   0A72
03C72:  MOVLW  B2
03C74:  MOVWF  FF6
03C76:  MOVLW  08
03C78:  MOVWF  FF7
03C7A:  MOVLW  00
03C7C:  MOVWF  FF8
03C7E:  CALL   0A42
03C82:  MOVLW  20
03C84:  MOVLB  2
03C86:  MOVWF  x10
03C88:  MOVLB  0
03C8A:  CALL   09F0
03C8E:  MOVLW  BC
03C90:  MOVWF  FF6
03C92:  MOVLW  08
03C94:  MOVWF  FF7
03C96:  MOVLW  00
03C98:  MOVWF  FF8
03C9A:  CALL   0A42
03C9E:  MOVLW  AB
03CA0:  MOVWF  FF6
03CA2:  MOVLW  08
03CA4:  MOVWF  FF7
03CA6:  MOVLW  00
03CA8:  MOVWF  FF8
03CAA:  MOVLW  05
03CAC:  MOVLB  2
03CAE:  MOVWF  x0C
03CB0:  MOVLB  0
03CB2:  CALL   0A72
.................... 
....................     io_init();
03CB6:  GOTO   0AEE
....................     setup_uart_to_boss(); // 割り込みはオフになっています
03CBA:  GOTO   0B46
....................     setup_timer();
03CBE:  GOTO   0B6A
....................     misf_init();
03CC2:  GOTO   11F8
.................... 
....................     piclog_make(0x00, 0x00);
03CC6:  MOVLB  1
03CC8:  CLRF   x6C
03CCA:  CLRF   x6D
03CCC:  MOVLB  0
03CCE:  CALL   1FA6
.................... 
....................     int1 is_finished = FALSE;
....................     int8 last_buffer_size = 0;
....................     int32 loop_counter = 0;
03CD2:  MOVLB  1
03CD4:  BCF    x50.0
03CD6:  CLRF   x51
03CD8:  CLRF   x55
03CDA:  CLRF   x54
03CDC:  CLRF   x53
03CDE:  CLRF   x52
.................... 
....................     fprintf(PC,"____TMP PIC Start Operation_____\r\n\r\n");
03CE0:  MOVLW  C6
03CE2:  MOVWF  FF6
03CE4:  MOVLW  08
03CE6:  MOVWF  FF7
03CE8:  MOVLW  00
03CEA:  MOVWF  FF8
03CEC:  MOVLB  0
03CEE:  CALL   0A42
....................     fprintf(PC,"waiting for BOSS PIC command\r\n");
03CF2:  MOVLW  EC
03CF4:  MOVWF  FF6
03CF6:  MOVLW  08
03CF8:  MOVWF  FF7
03CFA:  MOVLW  00
03CFC:  MOVWF  FF8
03CFE:  CALL   0A42
.................... 
....................     while(!is_finished)
03D02:  MOVLB  1
03D04:  BTFSS  x50.0
03D06:  BRA    3D0E
03D08:  MOVLB  0
03D0A:  GOTO   3F8E
03D0E:  MOVLB  0
....................     {
....................         // 約1秒ごとにピリオドを打って、フリーズしていないことを証明する
....................         loop_counter++;
03D10:  MOVLW  01
03D12:  MOVLB  1
03D14:  ADDWF  x52,F
03D16:  BTFSC  FD8.0
03D18:  INCF   x53,F
03D1A:  BTFSC  FD8.2
03D1C:  INCF   x54,F
03D1E:  BTFSC  FD8.2
03D20:  INCF   x55,F
....................         if (loop_counter > 20000) {
03D22:  MOVF   x55,F
03D24:  BTFSC  FD8.2
03D26:  BRA    3D2E
03D28:  MOVLB  0
03D2A:  GOTO   3D6C
03D2E:  MOVLB  0
03D30:  MOVLB  1
03D32:  MOVF   x54,F
03D34:  BTFSC  FD8.2
03D36:  BRA    3D3E
03D38:  MOVLB  0
03D3A:  GOTO   3D6C
03D3E:  MOVLB  0
03D40:  MOVLB  1
03D42:  MOVF   x53,W
03D44:  SUBLW  4D
03D46:  BTFSS  FD8.0
03D48:  BRA    3D50
03D4A:  MOVLB  0
03D4C:  GOTO   3D84
03D50:  MOVLB  0
03D52:  XORLW  FF
03D54:  BTFSS  FD8.2
03D56:  GOTO   3D6C
03D5A:  MOVLB  1
03D5C:  MOVF   x52,W
03D5E:  SUBLW  20
03D60:  BTFSS  FD8.0
03D62:  BRA    3D6A
03D64:  MOVLB  0
03D66:  GOTO   3D84
03D6A:  MOVLB  0
....................             fprintf(PC, ".");
03D6C:  MOVLW  2E
03D6E:  MOVLB  2
03D70:  MOVWF  x10
03D72:  MOVLB  0
03D74:  CALL   09F0
....................             loop_counter = 0;
03D78:  MOVLB  1
03D7A:  CLRF   x55
03D7C:  CLRF   x54
03D7E:  CLRF   x53
03D80:  CLRF   x52
03D82:  MOVLB  0
....................         }
.................... 
....................         // --- 1. ハードウェアUARTのバッファから安全にデータを吸い上げる ---
....................         if (kbhit(BOSS))
03D84:  BTFSS  FA6.5
03D86:  GOTO   3E02
....................         {
....................             uint8_t timeout_ms = 0;
03D8A:  MOVLB  1
03D8C:  CLRF   x56
03D8E:  MOVLB  0
....................             // データが途切れるまで全力で吸い上げる
....................             while(timeout_ms < 5)
03D90:  MOVLB  1
03D92:  MOVF   x56,W
03D94:  SUBLW  04
03D96:  BTFSC  FD8.0
03D98:  BRA    3DA0
03D9A:  MOVLB  0
03D9C:  GOTO   3E02
03DA0:  MOVLB  0
....................             {
....................                 if (kbhit(BOSS)) {
03DA2:  BTFSS  FA6.5
03DA4:  GOTO   3DEC
....................                     if (boss_receive_buffer_size < RECEIVE_BUFFER_MAX) {
03DA8:  MOVF   40,W
03DAA:  SUBLW  1F
03DAC:  BTFSS  FD8.0
03DAE:  GOTO   3DDE
....................                         boss_receive_buffer[boss_receive_buffer_size++] = fgetc(BOSS);
03DB2:  MOVF   40,W
03DB4:  INCF   40,F
03DB6:  CLRF   03
03DB8:  ADDLW  20
03DBA:  MOVWF  FE9
03DBC:  MOVLW  00
03DBE:  ADDWFC 03,W
03DC0:  MOVWF  FEA
03DC2:  MOVFF  FEA,167
03DC6:  MOVFF  FE9,166
03DCA:  CALL   214A
03DCE:  MOVFF  167,FEA
03DD2:  MOVFF  166,FE9
03DD6:  MOVF   01,W
03DD8:  MOVWF  FEF
....................                     } else {
03DDA:  GOTO   3DE2
....................                         fgetc(BOSS); // 満杯時は捨てる
03DDE:  CALL   214A
....................                     }
....................                     timeout_ms = 0;
03DE2:  MOVLB  1
03DE4:  CLRF   x56
03DE6:  MOVLB  0
....................                 } else {
03DE8:  GOTO   3DFE
....................                     delay_ms(1);
03DEC:  MOVLW  01
03DEE:  MOVLB  2
03DF0:  MOVWF  x24
03DF2:  MOVLB  0
03DF4:  CALL   09C2
....................                     timeout_ms++;
03DF8:  MOVLB  1
03DFA:  INCF   x56,F
03DFC:  MOVLB  0
....................                 }
03DFE:  GOTO   3D90
....................             }
....................         }
....................         // ---------------------------------------------------------------
.................... 
....................         // --- デバッグ機能：受信状況のリアルタイム表示 ---
....................         if (boss_receive_buffer_size != last_buffer_size)
03E02:  MOVLB  1
03E04:  MOVF   x51,W
03E06:  SUBWF  40,W
03E08:  BTFSS  FD8.2
03E0A:  BRA    3E12
03E0C:  MOVLB  0
03E0E:  GOTO   3EA8
03E12:  MOVLB  0
....................         {
....................             fprintf(PC, "\r\n[DEBUG] RX(%d): ", boss_receive_buffer_size);
03E14:  MOVLW  0C
03E16:  MOVWF  FF6
03E18:  MOVLW  09
03E1A:  MOVWF  FF7
03E1C:  MOVLW  00
03E1E:  MOVWF  FF8
03E20:  MOVLW  0D
03E22:  MOVLB  2
03E24:  MOVWF  x0C
03E26:  MOVLB  0
03E28:  CALL   0A72
03E2C:  MOVFF  40,164
03E30:  MOVLW  18
03E32:  MOVLB  1
03E34:  MOVWF  x65
03E36:  MOVLB  0
03E38:  GOTO   21B8
03E3C:  MOVLW  1B
03E3E:  MOVWF  FF6
03E40:  MOVLW  09
03E42:  MOVWF  FF7
03E44:  MOVLW  00
03E46:  MOVWF  FF8
03E48:  MOVLW  03
03E4A:  MOVLB  2
03E4C:  MOVWF  x0C
03E4E:  MOVLB  0
03E50:  CALL   0A72
....................             for(int i = 0; i < boss_receive_buffer_size; i++)
03E54:  MOVLB  1
03E56:  CLRF   x57
03E58:  MOVLB  0
03E5A:  MOVF   40,W
03E5C:  MOVLB  1
03E5E:  SUBWF  x57,W
03E60:  BTFSS  FD8.0
03E62:  BRA    3E6A
03E64:  MOVLB  0
03E66:  GOTO   3EA4
03E6A:  MOVLB  0
....................             {
....................                 fprintf(PC, "%02X ", boss_receive_buffer[i]);
03E6C:  CLRF   03
03E6E:  MOVLB  1
03E70:  MOVF   x57,W
03E72:  ADDLW  20
03E74:  MOVWF  FE9
03E76:  MOVLW  00
03E78:  ADDWFC 03,W
03E7A:  MOVWF  FEA
03E7C:  MOVFF  FEF,164
03E80:  MOVFF  164,185
03E84:  MOVLW  37
03E86:  MOVWF  x86
03E88:  MOVLB  0
03E8A:  CALL   13BA
03E8E:  MOVLW  20
03E90:  MOVLB  2
03E92:  MOVWF  x10
03E94:  MOVLB  0
03E96:  CALL   09F0
03E9A:  MOVLB  1
03E9C:  INCF   x57,F
03E9E:  MOVLB  0
03EA0:  GOTO   3E5A
....................             }
....................             last_buffer_size = boss_receive_buffer_size;
03EA4:  MOVFF  40,151
....................         }
....................         // ------------------------------------------------
.................... 
....................         // --- 2. 12バイトの制限を外し、お手本通りの記述に戻す ---
....................         if(boss_receive_buffer_size > 0)
03EA8:  MOVF   40,F
03EAA:  BTFSC  FD8.2
03EAC:  GOTO   3F6E
....................         {
....................             // お手本通り volatile を付ける
....................             volatile Command recieve_cmd = make_receive_command((uint8_t*)boss_receive_buffer, boss_receive_buffer_size);
03EB0:  MOVLB  1
03EB2:  CLRF   x6B
03EB4:  MOVLW  20
03EB6:  MOVWF  x6A
03EB8:  MOVFF  40,16C
03EBC:  MOVLB  0
03EBE:  GOTO   25D2
03EC2:  MOVFF  02,03
03EC6:  MOVF   01,W
03EC8:  MOVWF  FE1
03ECA:  MOVFF  03,FE2
03ECE:  MOVLW  01
03ED0:  MOVWF  FEA
03ED2:  MOVLW  58
03ED4:  MOVWF  FE9
03ED6:  MOVLW  0C
03ED8:  MOVWF  01
03EDA:  MOVFF  FE6,FEE
03EDE:  DECFSZ 01,F
03EE0:  GOTO   3EDA
.................... 
....................             clear_receive_signal((uint8_t*)boss_receive_buffer, &boss_receive_buffer_size);
03EE4:  MOVLB  1
03EE6:  CLRF   x65
03EE8:  MOVLW  20
03EEA:  MOVWF  x64
03EEC:  CLRF   x67
03EEE:  MOVLW  40
03EF0:  MOVWF  x66
03EF2:  MOVLB  0
03EF4:  GOTO   27CC
.................... 
....................             if(recieve_cmd.is_exist)
03EF8:  MOVLB  1
03EFA:  BTFSC  x5A.0
03EFC:  BRA    3F04
03EFE:  MOVLB  0
03F00:  GOTO   3F66
03F04:  MOVLB  0
....................             {
....................                 fprintf(PC, "\r\n[INFO] Valid Command Frame Received! ID: %02X\r\n", recieve_cmd.frame_id);
03F06:  MOVLW  20
03F08:  MOVWF  FF6
03F0A:  MOVLW  09
03F0C:  MOVWF  FF7
03F0E:  MOVLW  00
03F10:  MOVWF  FF8
03F12:  MOVLW  2B
03F14:  MOVLB  2
03F16:  MOVWF  x0C
03F18:  MOVLB  0
03F1A:  CALL   0A72
03F1E:  MOVFF  158,185
03F22:  MOVLW  37
03F24:  MOVLB  1
03F26:  MOVWF  x86
03F28:  MOVLB  0
03F2A:  CALL   13BA
03F2E:  MOVLW  0D
03F30:  MOVLB  2
03F32:  MOVWF  x10
03F34:  MOVLB  0
03F36:  CALL   09F0
03F3A:  MOVLW  0A
03F3C:  MOVLB  2
03F3E:  MOVWF  x10
03F40:  MOVLB  0
03F42:  CALL   09F0
.................... 
....................                 // お手本通り、名前を戻した execute_command を呼ぶ
....................                 execute_command((Command*)&recieve_cmd);
03F46:  MOVLW  01
03F48:  MOVLB  1
03F4A:  MOVWF  x65
03F4C:  MOVLW  58
03F4E:  MOVWF  x64
03F50:  MOVLB  0
03F52:  GOTO   38EA
.................... 
....................                 fprintf(PC,"\r\nwaiting for BOSS PIC command\r\n");
03F56:  MOVLW  52
03F58:  MOVWF  FF6
03F5A:  MOVLW  09
03F5C:  MOVWF  FF7
03F5E:  MOVLW  00
03F60:  MOVWF  FF8
03F62:  CALL   0A42
....................             }
.................... 
....................             // 処理が終わったら常にバッファをリセットして次の通信に備える
....................             boss_receive_buffer_size = 0;
03F66:  CLRF   40
....................             last_buffer_size = 0;
03F68:  MOVLB  1
03F6A:  CLRF   x51
03F6C:  MOVLB  0
....................         }
.................... 
....................         if(is_finished == TRUE) break;
03F6E:  MOVLB  1
03F70:  BTFSC  x50.0
03F72:  BRA    3F7A
03F74:  MOVLB  0
03F76:  GOTO   3F80
03F7A:  MOVLB  0
03F7C:  GOTO   3F8E
.................... 
....................         delay_us(50);
03F80:  MOVLW  42
03F82:  MOVWF  00
03F84:  DECFSZ 00,F
03F86:  BRA    3F84
03F88:  NOP   
03F8A:  GOTO   3D02
....................     }
.................... 
....................     fprintf(PC, "\r\n\r\n======\r\n\r\nFinished process.\r\nWait for BOSS PIC turn off me\r\n");
03F8E:  MOVLW  74
03F90:  MOVWF  FF6
03F92:  MOVLW  09
03F94:  MOVWF  FF7
03F96:  MOVLW  00
03F98:  MOVWF  FF8
03F9A:  CALL   0A42
.................... 
....................     while (TRUE)
....................     {
....................         fprintf(PC, ".");
03F9E:  MOVLW  2E
03FA0:  MOVLB  2
03FA2:  MOVWF  x10
03FA4:  MOVLB  0
03FA6:  CALL   09F0
....................         delay_ms(1000);
03FAA:  MOVLW  04
03FAC:  MOVLB  1
03FAE:  MOVWF  x64
03FB0:  MOVLB  0
03FB2:  MOVLW  FA
03FB4:  MOVLB  2
03FB6:  MOVWF  x24
03FB8:  MOVLB  0
03FBA:  CALL   09C2
03FBE:  MOVLB  1
03FC0:  DECFSZ x64,F
03FC2:  BRA    3FC8
03FC4:  BRA    3FCC
03FC6:  MOVLB  0
03FC8:  MOVLB  0
03FCA:  BRA    3FB2
03FCC:  MOVLB  0
03FCE:  GOTO   3F9E
....................     }
.................... 
....................     fprintf(PC, "End main\r\n");
03FD2:  MOVLW  B6
03FD4:  MOVWF  FF6
03FD6:  MOVLW  09
03FD8:  MOVWF  FF7
03FDA:  MOVLW  00
03FDC:  MOVWF  FF8
03FDE:  CALL   0A42
.................... }
03FE2:  SLEEP 

Configuration Fuses:
   Word  1: F6A0   STVREN NOXINST NODEBUG NOBROWNOUT BORV18 NOPROTECT
   Word  2: FF82   PR SOSC_DIG NOCLOCKOUT IESO NOPLL
   Word  3: F032   HS
   Word  4: F7FF   WPFP WPDIS WPEND NOWPCFG
   Word  5: FF03   T5G_IS_T5G CINA_DEFAULT IOL1WAY LS48MHZ MSSP2MSK7 MSSPMSK7
   Word  6: FCFF   WDTWIN_25% WDTCLK_FRC WDT32768 NOWDT WINDIS WPRES128
   Word  7: F01D   NOVREGSLEEP VBATBOR DSBOR DS_SW
   Word  8: F3F8   DSWDT_25DAYS NODSWDT DSWDTOSC_INT
